(dp0
(c__builtin__
frozenset
p1
((lp2
(I3
I1
tp3
a(I3
I3
tp4
a(I3
I5
tp5
atp6
Rp7
g1
((lp8
(I4
I2
tp9
a(I2
I3
tp10
a(I4
I3
tp11
atp12
Rp13
tp14
((lp15
((I3
I1
tp16
(I2
I1
tp17
tp18
aF-0.7777777777777777
tp19
s(g1
((lp20
(I3
I4
tp21
a(I2
I4
tp22
a(I3
I3
tp23
atp24
Rp25
g1
((lp26
(I4
I5
tp27
a(I1
I2
tp28
a(I2
I3
tp29
atp30
Rp31
tp32
((lp33
(g21
(I4
I3
tp34
tp35
aF-1047.7222222222224
tp36
s(g1
((lp37
(I3
I4
tp38
a(I2
I1
tp39
a(I4
I3
tp40
atp41
Rp42
g1
((lp43
(I1
I2
tp44
a(I4
I2
tp45
a(I4
I1
tp46
atp47
Rp48
tp49
((lp50
((I4
I3
tp51
(I3
I3
tp52
tp53
a((I4
I3
tp54
(I3
I2
tp55
tp56
aF1.3333333333333335
tp57
s(g1
((lp58
(I2
I5
tp59
a(I2
I3
tp60
a(I4
I3
tp61
atp62
Rp63
g1
((lp64
g28
a(I3
I4
tp65
a(I3
I6
tp66
atp67
Rp68
tp69
((lp70
(g59
(I2
I4
tp71
tp72
aF0.0
tp73
s(g1
((lp74
(I2
I5
tp75
a(I3
I3
tp76
a(I4
I3
tp77
atp78
Rp79
g1
((lp80
(I5
I4
tp81
a(I4
I4
tp82
a(I1
I4
tp83
atp84
Rp85
tp86
((lp87
((I3
I3
tp88
(I3
I2
tp89
tp90
aF0.5555555555555556
tp91
s(g1
((lp92
(I0
I3
tp93
a(I2
I3
tp94
a(I2
I5
tp95
a(I2
I1
tp96
a(I1
I4
tp97
atp98
Rp99
g1
((lp100
(I6
I3
tp101
a(I4
I2
tp102
a(I5
I4
tp103
a(I4
I4
tp104
a(I5
I2
tp105
atp106
Rp107
tp108
((lp109
(g97
(I1
I3
tp110
tp111
aF-0.5
tp112
s(g1
((lp113
(I5
I4
tp114
a(I3
I2
tp115
a(I2
I1
tp116
atp117
Rp118
g1
((lp119
(I4
I1
tp120
a(I2
I3
tp121
a(I3
I3
tp122
atp123
Rp124
tp125
((lp126
((I2
I1
tp127
(I3
I1
tp128
tp129
aF-1052.3333333333333
tp130
s(g1
((lp131
(I3
I2
tp132
a(I5
I2
tp133
a(I2
I1
tp134
atp135
Rp136
g1
((lp137
(I1
I3
tp138
a(I2
I4
tp139
a(I5
I3
tp140
atp141
Rp142
tp143
((lp144
((I5
I2
tp145
(I4
I1
tp146
tp147
a((I2
I1
tp148
(I3
I0
tp149
tp150
a((I2
I1
tp151
(I3
I1
tp152
tp153
aF1.4444444444444442
tp154
s(g1
((lp155
(I6
I3
tp156
a(I3
I4
tp157
a(I5
I4
tp158
a(I5
I2
tp159
atp160
Rp161
g1
((lp162
(I2
I5
tp163
a(I1
I3
tp164
a(I0
I3
tp165
a(I2
I2
tp166
atp167
Rp168
tp169
((lp170
(g157
(I2
I5
tp171
tp172
aF-48.111111111111114
tp173
s(g1
((lp174
(I2
I5
tp175
ag22
ag23
atp176
Rp177
g1
((lp178
g27
ag28
a(I3
I2
tp179
atp180
Rp181
tp182
((lp183
(g175
(I3
I4
tp184
tp185
a(g22
(I3
I4
tp186
tp187
aF1.1111111111111107
tp188
s(g1
((lp189
(I1
I2
tp190
a(I4
I5
tp191
a(I1
I4
tp192
atp193
Rp194
g1
((lp195
(I6
I3
tp196
a(I4
I2
tp197
a(I0
I3
tp198
atp199
Rp200
tp201
((lp202
((I1
I2
tp203
(I2
I3
tp204
tp205
aF0.8888888888888893
tp206
s(g1
((lp207
(I2
I3
tp208
a(I1
I4
tp209
a(I5
I3
tp210
atp211
Rp212
g1
((lp213
(I4
I5
tp214
a(I3
I4
tp215
a(I3
I3
tp216
atp217
Rp218
tp219
((lp220
(g208
(I2
I4
tp221
tp222
aF-1051.5555555555557
tp223
s(g1
((lp224
(I1
I2
tp225
a(I4
I1
tp226
a(I2
I3
tp227
atp228
Rp229
g1
((lp230
(I6
I3
tp231
a(I1
I3
tp232
a(I4
I4
tp233
atp234
Rp235
tp236
((lp237
((I1
I2
tp238
(I2
I2
tp239
tp240
a((I2
I3
tp241
(I3
I2
tp242
tp243
aF1.6666666666666663
tp244
s(g1
((lp245
(I3
I2
tp246
a(I3
I1
tp247
a(I1
I4
tp248
atp249
Rp250
g1
((lp251
(I2
I3
tp252
a(I2
I1
tp253
a(I4
I3
tp254
atp255
Rp256
tp257
((lp258
((I3
I1
tp259
(I3
I0
tp260
tp261
aF-1.111111111111111
tp262
s(g1
((lp263
(I2
I5
tp264
a(I3
I1
tp265
a(I3
I4
tp266
atp267
Rp268
g1
((lp269
(I5
I4
tp270
a(I4
I4
tp271
a(I2
I3
tp272
atp273
Rp274
tp275
((lp276
((I3
I4
tp277
(I3
I3
tp278
tp279
aF-3.0000000000000004
tp280
s(g1
((lp281
(I4
I1
tp282
a(I3
I3
tp283
a(I3
I5
tp284
atp285
Rp286
g1
((lp287
(I1
I2
tp288
a(I2
I3
tp289
a(I4
I3
tp290
atp291
Rp292
tp293
((lp294
((I3
I3
tp295
(I3
I2
tp296
tp297
aF0.555555555555556
tp298
s(g1
((lp299
(I5
I4
tp300
a(I2
I4
tp301
ag209
atp302
Rp303
g1
((lp304
g214
a(I3
I2
tp305
a(I2
I3
tp306
atp307
Rp308
tp309
((lp310
(g209
(I2
I5
tp311
tp312
aF-1047.2777777777776
tp313
s(g1
((lp314
(I6
I3
tp315
a(I4
I4
tp316
a(I1
I3
tp317
atp318
Rp319
g1
((lp320
(I1
I2
tp321
a(I3
I2
tp322
a(I4
I1
tp323
atp324
Rp325
tp326
((lp327
((I6
I3
tp328
(I5
I3
tp329
tp330
aF-1049.611111111111
tp331
s(g1
((lp332
g158
a(I2
I5
tp333
a(I4
I3
tp334
atp335
Rp336
g1
((lp337
g165
ag166
ag210
atp338
Rp339
tp340
((lp341
(g158
(I4
I4
tp342
tp343
a(g334
(I3
I4
tp344
tp345
aF1.6666666666666663
tp346
s(g1
((lp347
(I4
I2
tp348
a(I1
I3
tp349
a(I5
I2
tp350
atp351
Rp352
g1
((lp353
(I2
I1
tp354
a(I4
I3
tp355
a(I3
I3
tp356
atp357
Rp358
tp359
((lp360
((I1
I3
tp361
(I1
I2
tp362
tp363
aF-1048.2777777777776
tp364
s(g1
((lp365
g22
a(I1
I4
tp366
ag23
atp367
Rp368
g1
((lp369
g27
ag179
a(I2
I3
tp370
atp371
Rp372
tp373
((lp374
(g366
g311
tp375
aF-1047.7222222222224
tp376
s(g1
((lp377
g28
ag65
ag66
atp378
Rp379
g1
((lp380
g60
a(I2
I4
tp381
ag61
atp382
Rp383
tp384
((lp385
(g66
(I3
I5
tp386
tp387
aF-1.111111111111111
tp388
s(g1
((lp389
(I4
I2
tp390
a(I2
I3
tp391
a(I4
I3
tp392
atp393
Rp394
g1
((lp395
(I5
I4
tp396
a(I3
I1
tp397
a(I3
I2
tp398
atp399
Rp400
tp401
((lp402
((I2
I3
tp403
(I2
I2
tp404
tp405
aF0.7777777777777779
tp406
s(g1
((lp407
(I2
I3
tp408
a(I4
I3
tp409
ag96
atp410
Rp411
g1
((lp412
(I1
I3
tp413
a(I3
I4
tp414
a(I3
I3
tp415
atp416
Rp417
tp418
((lp419
(g96
(I1
I2
tp420
tp421
aF-1049.5
tp422
s(g1
((lp423
(I3
I2
tp424
a(I3
I1
tp425
a(I5
I3
tp426
atp427
Rp428
g1
((lp429
(I5
I2
tp430
a(I4
I3
tp431
a(I2
I2
tp432
atp433
Rp434
tp435
((lp436
((I3
I1
tp437
(I4
I1
tp438
tp439
aF-1.3333333333333333
tp440
s(g1
((lp441
(I2
I3
tp442
a(I2
I1
tp443
a(I4
I3
tp444
atp445
Rp446
g1
((lp447
(I3
I2
tp448
a(I3
I1
tp449
a(I3
I4
tp450
atp451
Rp452
tp453
((lp454
((I2
I3
tp455
(I2
I2
tp456
tp457
aF-1048.611111111111
tp458
s(g1
((lp459
(I4
I2
tp460
a(I2
I3
tp461
a(I3
I3
tp462
atp463
Rp464
g1
((lp465
(I5
I4
tp466
a(I3
I2
tp467
a(I2
I1
tp468
atp469
Rp470
tp471
((lp472
((I4
I2
tp473
(I4
I1
tp474
tp475
aF0.4444444444444442
tp476
s(g1
((lp477
(I1
I3
tp478
a(I5
I2
tp479
a(I4
I4
tp480
atp481
Rp482
g1
((lp483
(I4
I1
tp484
a(I3
I3
tp485
a(I2
I1
tp486
atp487
Rp488
tp489
((lp490
((I4
I4
tp491
(I4
I3
tp492
tp493
aF-1047.5555555555557
tp494
s(g1
((lp495
(I4
I5
tp496
a(I6
I3
tp497
a(I4
I3
tp498
a(I5
I3
tp499
atp500
Rp501
g1
((lp502
(I1
I2
tp503
a(I4
I2
tp504
a(I0
I3
tp505
a(I3
I4
tp506
a(I1
I4
tp507
atp508
Rp509
tp510
((lp511
((I4
I3
tp512
(I4
I2
tp513
tp514
aF-49.27777777777778
tp515
s(g1
((lp516
(I1
I2
tp517
a(I2
I3
tp518
a(I4
I3
tp519
atp520
Rp521
g1
((lp522
(I3
I2
tp523
a(I4
I1
tp524
a(I3
I5
tp525
atp526
Rp527
tp528
((lp529
((I2
I3
tp530
(I2
I2
tp531
tp532
aF-1048.5
tp533
s(g1
((lp534
(I1
I3
tp535
ag65
a(I3
I5
tp536
atp537
Rp538
g1
((lp539
(I4
I4
tp540
ag60
a(I1
I4
tp541
atp542
Rp543
tp544
((lp545
(g536
(I2
I5
tp546
tp547
aF-1.3333333333333333
tp548
s(g1
((lp549
(I1
I2
tp550
a(I0
I3
tp551
a(I3
I4
tp552
a(I1
I4
tp553
a(I2
I2
tp554
atp555
Rp556
g1
((lp557
(I4
I5
tp558
a(I6
I3
tp559
a(I4
I1
tp560
a(I4
I3
tp561
a(I5
I3
tp562
atp563
Rp564
tp565
((lp566
((I2
I2
tp567
(I3
I2
tp568
tp569
aF-48.92
tp570
s(g1
((lp571
(I4
I1
tp572
a(I3
I3
tp573
a(I3
I5
tp574
atp575
Rp576
g1
((lp577
(I1
I2
tp578
a(I3
I4
tp579
a(I2
I2
tp580
atp581
Rp582
tp583
((lp584
((I3
I3
tp585
(I2
I3
tp586
tp587
aF-2.333333333333333
tp588
s(g1
((lp589
(I4
I4
tp590
a(I2
I3
tp591
a(I4
I3
tp592
atp593
Rp594
g1
((lp595
(I2
I5
tp596
a(I3
I1
tp597
a(I3
I3
tp598
atp599
Rp600
tp601
((lp602
((I4
I4
tp603
(I5
I4
tp604
tp605
aF-2.1111111111111107
tp606
s(g1
((lp607
g163
ag164
a(I2
I3
tp608
ag165
a(I2
I1
tp609
atp610
Rp611
g1
((lp612
g156
ag157
ag158
ag159
a(I3
I2
tp613
atp614
Rp615
tp616
((lp617
((I2
I1
tp618
(I2
I2
tp619
tp620
a((I2
I5
tp621
(I2
I4
tp622
tp623
aF-2.1111111111111103
tp624
s(g1
((lp625
g305
a(I3
I3
tp626
a(I3
I5
tp627
atp628
Rp629
g1
((lp630
(I2
I5
tp631
a(I2
I3
tp632
a(I4
I3
tp633
atp634
Rp635
tp636
((lp637
(g305
(I3
I1
tp638
tp639
a(g305
(I4
I2
tp640
tp641
a(g626
(I3
I4
tp642
tp643
a(g627
(I3
I4
tp644
tp645
aF-1.9999999999999998
tp646
s(g1
((lp647
g158
ag159
ag333
atp648
Rp649
g1
((lp650
(I6
I3
tp651
ag165
ag166
atp652
Rp653
tp654
((lp655
(g159
(I4
I3
tp656
tp657
aF0.8888888888888893
tp658
s(g1
((lp659
g60
ag381
ag61
atp660
Rp661
g1
((lp662
g28
ag65
ag536
atp663
Rp664
tp665
((lp666
(g61
(I4
I4
tp667
tp668
aF0.7777777777777779
tp669
s(g1
((lp670
(I4
I5
tp671
a(I2
I5
tp672
a(I3
I3
tp673
atp674
Rp675
g1
((lp676
(I5
I4
tp677
a(I1
I3
tp678
a(I4
I3
tp679
atp680
Rp681
tp682
((lp683
((I4
I5
tp684
(I3
I4
tp685
tp686
aF0.2222222222222221
tp687
s(g1
((lp688
(I4
I2
tp689
a(I5
I2
tp690
a(I3
I3
tp691
atp692
Rp693
g1
((lp694
(I3
I4
tp695
a(I2
I1
tp696
a(I4
I3
tp697
atp698
Rp699
tp700
((lp701
((I5
I2
tp702
(I4
I1
tp703
tp704
aF-1047.7222222222224
tp705
s(g1
((lp706
(I1
I2
tp707
a(I2
I5
tp708
a(I1
I4
tp709
a(I0
I3
tp710
a(I2
I1
tp711
atp712
Rp713
g1
((lp714
(I6
I3
tp715
a(I5
I2
tp716
a(I5
I4
tp717
a(I4
I4
tp718
a(I4
I1
tp719
atp720
Rp721
tp722
((lp723
((I1
I4
tp724
(I1
I3
tp725
tp726
a((I1
I4
tp727
(I2
I3
tp728
tp729
aF-48.916666666666664
tp730
s(g1
((lp731
(I2
I1
tp732
a(I3
I3
tp733
a(I4
I3
tp734
atp735
Rp736
g1
((lp737
(I3
I2
tp738
a(I3
I1
tp739
a(I1
I4
tp740
atp741
Rp742
tp743
((lp744
((I3
I3
tp745
(I2
I3
tp746
tp747
aF-1051.8333333333333
tp748
s(g1
((lp749
g301
ag209
ag210
atp750
Rp751
g1
((lp752
g214
ag306
ag216
atp753
Rp754
tp755
((lp756
(g210
(I5
I4
tp757
tp758
aF-1048.2777777777776
tp759
s(g1
((lp760
(I1
I2
tp761
a(I0
I3
tp762
a(I3
I2
tp763
a(I1
I4
tp764
atp765
Rp766
g1
((lp767
(I6
I3
tp768
a(I4
I4
tp769
a(I4
I1
tp770
a(I5
I3
tp771
atp772
Rp773
tp774
((lp775
((I3
I2
tp776
(I4
I1
tp777
tp778
aF-48.111111111111114
tp779
s(g1
((lp780
(I1
I2
tp781
a(I0
I3
tp782
a(I3
I4
tp783
a(I3
I2
tp784
a(I1
I4
tp785
atp786
Rp787
g1
((lp788
(I4
I5
tp789
a(I6
I3
tp790
a(I5
I3
tp791
a(I4
I3
tp792
a(I4
I2
tp793
atp794
Rp795
tp796
((lp797
((I3
I2
tp798
(I4
I2
tp799
tp800
aF-1.6666666666666665
tp801
s(g1
((lp802
(I3
I0
tp803
a(I3
I2
tp804
a(I1
I4
tp805
atp806
Rp807
g1
((lp808
(I2
I3
tp809
a(I4
I3
tp810
a(I2
I2
tp811
atp812
Rp813
tp814
((lp815
((I3
I0
tp816
(I3
I1
tp817
tp818
aF-1.111111111111111
tp819
s(g1
((lp820
(I4
I5
tp821
a(I6
I3
tp822
a(I5
I4
tp823
a(I4
I1
tp824
a(I5
I3
tp825
atp826
Rp827
g1
((lp828
(I1
I2
tp829
a(I0
I3
tp830
a(I3
I4
tp831
a(I1
I4
tp832
a(I2
I2
tp833
atp834
Rp835
tp836
((lp837
((I5
I4
tp838
(I4
I3
tp839
tp840
aF-48.97222222222222
tp841
s(g1
((lp842
(I1
I2
tp843
a(I4
I2
tp844
a(I2
I3
tp845
atp846
Rp847
g1
((lp848
(I3
I2
tp849
a(I1
I3
tp850
a(I2
I1
tp851
atp852
Rp853
tp854
((lp855
((I1
I2
tp856
(I2
I2
tp857
tp858
aF1.2222222222222223
tp859
s(g1
((lp860
(I1
I3
tp861
a(I1
I4
tp862
a(I4
I3
tp863
ag96
atp864
Rp865
g1
((lp866
g102
a(I3
I4
tp867
ag105
a(I3
I5
tp868
atp869
Rp870
tp871
((lp872
(g861
(I2
I3
tp873
tp874
aF0.0
tp875
s(g1
((lp876
(I1
I2
tp877
a(I0
I3
tp878
a(I1
I3
tp879
a(I2
I5
tp880
a(I2
I1
tp881
atp882
Rp883
g1
((lp884
(I6
I3
tp885
a(I3
I2
tp886
a(I4
I4
tp887
a(I5
I2
tp888
a(I5
I4
tp889
atp890
Rp891
tp892
((lp893
((I1
I2
tp894
(I2
I3
tp895
tp896
aF-48.97222222222222
tp897
s(g1
((lp898
g651
ag165
ag166
atp899
Rp900
g1
((lp901
g158
ag333
ag334
atp902
Rp903
tp904
((lp905
(g651
(I5
I3
tp906
tp907
a(g166
(I2
I3
tp908
tp909
aF-1050.2222222222222
tp910
s(g1
((lp911
(I6
I3
tp912
a(I4
I2
tp913
a(I5
I3
tp914
atp915
Rp916
g1
((lp917
(I1
I2
tp918
a(I4
I5
tp919
a(I0
I3
tp920
a(I1
I4
tp921
atp922
Rp923
tp924
((lp925
((I5
I3
tp926
(I0
I3
tp927
tp928
aF-47.333333333333336
tp929
s(g1
((lp930
(I1
I2
tp931
a(I4
I3
tp932
a(I2
I2
tp933
atp934
Rp935
g1
((lp936
(I4
I1
tp937
a(I3
I3
tp938
a(I3
I5
tp939
atp940
Rp941
tp942
((lp943
((I4
I3
tp944
(I3
I4
tp945
tp946
aF0.555555555555556
tp947
s(g1
((lp948
(I3
I1
tp949
a(I3
I3
tp950
ag627
atp951
Rp952
g1
((lp953
(I2
I3
tp954
a(I2
I4
tp955
ag633
atp956
Rp957
tp958
((lp959
(g627
(I4
I5
tp960
tp961
aF-0.7777777777777777
tp962
s(g1
((lp963
(I2
I1
tp964
a(I4
I3
tp965
a(I3
I3
tp966
atp967
Rp968
g1
((lp969
(I1
I2
tp970
a(I4
I2
tp971
a(I5
I2
tp972
atp973
Rp974
tp975
((lp976
((I3
I3
tp977
(I3
I4
tp978
tp979
aF0.5555555555555556
tp980
s(g1
((lp981
(I4
I4
tp982
a(I2
I3
tp983
a(I3
I3
tp984
atp985
Rp986
g1
((lp987
(I5
I2
tp988
a(I2
I5
tp989
a(I3
I4
tp990
atp991
Rp992
tp993
((lp994
((I4
I4
tp995
(I4
I5
tp996
tp997
aF0.4444444444444442
tp998
s(g1
((lp999
(I3
I2
tp1000
ag22
ag366
atp1001
Rp1002
g1
((lp1003
g27
ag949
ag370
atp1004
Rp1005
tp1006
((lp1007
(g1000
(I3
I3
tp1008
tp1009
aF-1.3333333333333335
tp1010
s(g1
((lp1011
(I3
I2
tp1012
a(I4
I1
tp1013
a(I1
I4
tp1014
atp1015
Rp1016
g1
((lp1017
(I2
I1
tp1018
a(I3
I3
tp1019
a(I4
I3
tp1020
atp1021
Rp1022
tp1023
((lp1024
((I4
I1
tp1025
(I3
I1
tp1026
tp1027
aF-1052.3333333333333
tp1028
s(g1
((lp1029
(I5
I2
tp1030
a(I3
I4
tp1031
a(I3
I5
tp1032
atp1033
Rp1034
g1
((lp1035
(I4
I5
tp1036
a(I2
I3
tp1037
a(I4
I3
tp1038
atp1039
Rp1040
tp1041
((lp1042
((I3
I5
tp1043
(I3
I6
tp1044
tp1045
aF-1.111111111111111
tp1046
s(g1
((lp1047
g413
ag415
a(I3
I5
tp1048
atp1049
Rp1050
g1
((lp1051
(I1
I2
tp1052
ag408
a(I2
I2
tp1053
atp1054
Rp1055
tp1056
((lp1057
(g415
(I4
I3
tp1058
tp1059
aF-1.1111111111111112
tp1060
s(g1
((lp1061
g631
ag954
ag633
atp1062
Rp1063
g1
((lp1064
g949
ag950
ag627
atp1065
Rp1066
tp1067
((lp1068
(g631
g71
tp1069
aF-2.0
tp1070
s(g1
((lp1071
(I3
I2
tp1072
a(I2
I1
tp1073
a(I3
I5
tp1074
atp1075
Rp1076
g1
((lp1077
(I5
I2
tp1078
a(I2
I3
tp1079
a(I4
I2
tp1080
atp1081
Rp1082
tp1083
((lp1084
((I3
I2
tp1085
(I3
I3
tp1086
tp1087
aF-3.0000000000000004
tp1088
s(g1
((lp1089
g165
ag164
ag166
atp1090
Rp1091
g1
((lp1092
g156
ag158
ag159
ag333
atp1093
Rp1094
tp1095
((lp1096
(g164
(I6
I3
tp1097
tp1098
aF-47.333333333333336
tp1099
s(g1
((lp1100
g1052
ag408
a(I2
I1
tp1101
atp1102
Rp1103
g1
((lp1104
g413
ag415
ag1048
atp1105
Rp1106
tp1107
((lp1108
(g1101
(I2
I2
tp1109
tp1110
aF1.111111111111111
tp1111
s(g1
((lp1112
g413
ag414
ag415
atp1113
Rp1114
g1
((lp1115
g1052
ag408
ag409
atp1116
Rp1117
tp1118
((lp1119
(g414
(I2
I5
tp1120
tp1121
a(g414
(I2
I4
tp1122
tp1123
aF-1049.7222222222222
tp1124
s(g1
((lp1125
g1052
a(I3
I3
tp1126
ag1053
atp1127
Rp1128
g1
((lp1129
g413
a(I3
I4
tp1130
ag1048
atp1131
Rp1132
tp1133
((lp1134
(g1126
(I2
I3
tp1135
tp1136
aF-1050.111111111111
tp1137
s(g1
((lp1138
(I6
I3
tp1139
a(I5
I2
tp1140
a(I5
I4
tp1141
a(I4
I4
tp1142
a(I4
I1
tp1143
atp1144
Rp1145
g1
((lp1146
(I1
I2
tp1147
a(I0
I3
tp1148
a(I1
I3
tp1149
a(I2
I5
tp1150
a(I2
I1
tp1151
atp1152
Rp1153
tp1154
((lp1155
((I4
I1
tp1156
(I3
I2
tp1157
tp1158
aF-48.75
tp1159
s(g1
((lp1160
(I3
I0
tp1161
a(I5
I4
tp1162
a(I3
I2
tp1163
atp1164
Rp1165
g1
((lp1166
(I4
I2
tp1167
a(I2
I3
tp1168
a(I4
I3
tp1169
atp1170
Rp1171
tp1172
((lp1173
((I3
I0
tp1174
(I3
I1
tp1175
tp1176
aF-1.111111111111111
tp1177
s(g1
((lp1178
(I4
I2
tp1179
a(I2
I3
tp1180
a(I2
I2
tp1181
atp1182
Rp1183
g1
((lp1184
(I3
I2
tp1185
a(I1
I3
tp1186
a(I3
I1
tp1187
atp1188
Rp1189
tp1190
((lp1191
((I2
I2
tp1192
(I1
I2
tp1193
tp1194
aF1.2222222222222223
tp1195
s(g1
((lp1196
(I1
I2
tp1197
ag163
ag165
a(I1
I4
tp1198
ag609
atp1199
Rp1200
g1
((lp1201
g156
a(I4
I2
tp1202
ag158
ag159
a(I4
I5
tp1203
atp1204
Rp1205
tp1206
((lp1207
(g1197
(I1
I3
tp1208
tp1209
a(g1197
(I2
I3
tp1210
tp1211
aF-48.916666666666664
tp1212
s(g1
((lp1213
(I3
I2
tp1214
a(I4
I1
tp1215
a(I2
I1
tp1216
atp1217
Rp1218
g1
((lp1219
(I1
I3
tp1220
a(I5
I2
tp1221
a(I4
I4
tp1222
atp1223
Rp1224
tp1225
((lp1226
((I3
I2
tp1227
(I3
I3
tp1228
tp1229
aF1.4444444444444442
tp1230
s(g1
((lp1231
g102
ag867
ag105
ag868
atp1232
Rp1233
g1
((lp1234
g96
a(I2
I3
tp1235
ag863
ag862
atp1236
Rp1237
tp1238
((lp1239
(g868
(I4
I5
tp1240
tp1241
aF0.0
tp1242
s(g1
((lp1243
(I2
I5
tp1244
a(I3
I4
tp1245
a(I3
I3
tp1246
atp1247
Rp1248
g1
((lp1249
(I5
I4
tp1250
a(I1
I3
tp1251
a(I4
I4
tp1252
atp1253
Rp1254
tp1255
((lp1256
((I3
I4
tp1257
(I4
I3
tp1258
tp1259
aF-1048.4444444444443
tp1260
s(g1
((lp1261
g1235
ag863
ag96
ag862
atp1262
Rp1263
g1
((lp1264
(I4
I5
tp1265
ag102
ag867
ag105
atp1266
Rp1267
tp1268
((lp1269
(g1235
(I1
I3
tp1270
tp1271
a(g1235
(I3
I3
tp1272
tp1273
aF-48.44444444444445
tp1274
s(g1
((lp1275
(I5
I2
tp1276
a(I2
I5
tp1277
a(I3
I4
tp1278
atp1279
Rp1280
g1
((lp1281
(I4
I5
tp1282
a(I2
I3
tp1283
a(I3
I3
tp1284
atp1285
Rp1286
tp1287
((lp1288
((I2
I5
tp1289
(I3
I5
tp1290
tp1291
aF-1052.3333333333333
tp1292
s(g1
((lp1293
(I4
I5
tp1294
a(I4
I4
tp1295
a(I2
I4
tp1296
atp1297
Rp1298
g1
((lp1299
(I3
I2
tp1300
a(I3
I4
tp1301
a(I3
I5
tp1302
atp1303
Rp1304
tp1305
((lp1306
((I2
I4
tp1307
(I2
I3
tp1308
tp1309
aF-1.3333333333333335
tp1310
s(g1
((lp1311
(I5
I4
tp1312
a(I3
I4
tp1313
a(I2
I1
tp1314
atp1315
Rp1316
g1
((lp1317
(I4
I2
tp1318
a(I3
I2
tp1319
a(I3
I3
tp1320
atp1321
Rp1322
tp1323
((lp1324
((I3
I4
tp1325
(I4
I3
tp1326
tp1327
aF-1050.5555555555557
tp1328
s(g1
((lp1329
g28
ag65
ag536
atp1330
Rp1331
g1
((lp1332
g540
ag60
ag381
atp1333
Rp1334
tp1335
((lp1336
(g28
g1208
tp1337
aF-1.5555555555555556
tp1338
s(g1
((lp1339
(I4
I2
tp1340
a(I3
I2
tp1341
a(I3
I3
tp1342
atp1343
Rp1344
g1
((lp1345
(I5
I4
tp1346
a(I2
I1
tp1347
a(I4
I3
tp1348
atp1349
Rp1350
tp1351
((lp1352
((I3
I2
tp1353
(I2
I3
tp1354
tp1355
aF-1047.7222222222224
tp1356
s(g1
((lp1357
(I3
I2
tp1358
a(I1
I3
tp1359
a(I3
I1
tp1360
atp1361
Rp1362
g1
((lp1363
(I1
I2
tp1364
a(I4
I2
tp1365
a(I2
I3
tp1366
atp1367
Rp1368
tp1369
((lp1370
((I3
I1
tp1371
(I2
I1
tp1372
tp1373
aF-1.3333333333333333
tp1374
s(g1
((lp1375
(I3
I2
tp1376
a(I3
I1
tp1377
a(I1
I4
tp1378
atp1379
Rp1380
g1
((lp1381
(I4
I2
tp1382
a(I2
I3
tp1383
a(I2
I2
tp1384
atp1385
Rp1386
tp1387
((lp1388
((I1
I4
tp1389
(I1
I3
tp1390
tp1391
aF-1.5555555555555556
tp1392
s(g1
((lp1393
g163
ag164
ag165
ag1198
ag609
atp1394
Rp1395
g1
((lp1396
g156
ag1202
ag158
ag157
ag159
atp1397
Rp1398
tp1399
((lp1400
(g1198
(I2
I3
tp1401
tp1402
aF-48.97222222222222
tp1403
s(g1
((lp1404
(I5
I2
tp1405
a(I3
I4
tp1406
a(I3
I6
tp1407
atp1408
Rp1409
g1
((lp1410
(I4
I4
tp1411
a(I2
I3
tp1412
a(I4
I3
tp1413
atp1414
Rp1415
tp1416
((lp1417
((I3
I6
tp1418
(I3
I5
tp1419
tp1420
aF-1.111111111111111
tp1421
s(g1
((lp1422
g214
ag333
a(I3
I4
tp1423
atp1424
Rp1425
g1
((lp1426
g166
ag209
ag210
atp1427
Rp1428
tp1429
((lp1430
(g1423
(I3
I3
tp1431
tp1432
aF1.4444444444444442
tp1433
s(g1
((lp1434
g1265
ag102
ag867
ag105
atp1435
Rp1436
g1
((lp1437
(I1
I3
tp1438
ag862
ag96
ag863
atp1439
Rp1440
tp1441
((lp1442
(g102
(I3
I2
tp1443
tp1444
aF-47.111111111111114
tp1445
s(g1
((lp1446
(I4
I5
tp1447
a(I2
I3
tp1448
a(I4
I3
tp1449
atp1450
Rp1451
g1
((lp1452
(I3
I1
tp1453
a(I3
I3
tp1454
a(I3
I5
tp1455
atp1456
Rp1457
tp1458
((lp1459
((I4
I5
tp1460
(I4
I4
tp1461
tp1462
aF-2.0
tp1463
s(g1
((lp1464
g214
ag333
ag216
atp1465
Rp1466
g1
((lp1467
g208
ag209
ag210
atp1468
Rp1469
tp1470
((lp1471
(g333
g184
tp1472
aF0.2222222222222221
tp1473
s(g1
((lp1474
(I4
I5
tp1475
a(I4
I4
tp1476
a(I2
I3
tp1477
atp1478
Rp1479
g1
((lp1480
(I3
I2
tp1481
a(I3
I3
tp1482
a(I3
I5
tp1483
atp1484
Rp1485
tp1486
((lp1487
((I4
I4
tp1488
(I4
I3
tp1489
tp1490
aF-3.333333333333333
tp1491
s(g1
((lp1492
g214
ag305
a(I3
I4
tp1493
atp1494
Rp1495
g1
((lp1496
g631
a(I4
I4
tp1497
ag301
atp1498
Rp1499
tp1500
((lp1501
(g214
(I3
I5
tp1502
tp1503
a(g1493
g1431
tp1504
aF0.22222222222222232
tp1505
s(g1
((lp1506
(I4
I1
tp1507
a(I2
I3
tp1508
a(I4
I3
tp1509
atp1510
Rp1511
g1
((lp1512
(I3
I1
tp1513
a(I3
I3
tp1514
a(I3
I5
tp1515
atp1516
Rp1517
tp1518
((lp1519
((I4
I1
tp1520
(I4
I2
tp1521
tp1522
aF-2.0
tp1523
s(g1
((lp1524
(I6
I3
tp1525
a(I3
I2
tp1526
a(I4
I4
tp1527
a(I5
I2
tp1528
a(I5
I4
tp1529
atp1530
Rp1531
g1
((lp1532
(I0
I3
tp1533
a(I1
I3
tp1534
a(I2
I3
tp1535
a(I2
I5
tp1536
a(I2
I1
tp1537
atp1538
Rp1539
tp1540
((lp1541
((I4
I4
tp1542
(I3
I4
tp1543
tp1544
aF-48.92
tp1545
s(g1
((lp1546
(I1
I2
tp1547
a(I0
I3
tp1548
a(I2
I5
tp1549
a(I1
I4
tp1550
a(I2
I2
tp1551
atp1552
Rp1553
g1
((lp1554
(I4
I5
tp1555
a(I6
I3
tp1556
a(I5
I4
tp1557
a(I4
I1
tp1558
a(I5
I3
tp1559
atp1560
Rp1561
tp1562
((lp1563
((I2
I5
tp1564
(I3
I4
tp1565
tp1566
aF-48.75
tp1567
s(g1
((lp1568
g1052
ag408
ag1053
atp1569
Rp1570
g1
((lp1571
g413
a(I4
I3
tp1572
ag1048
atp1573
Rp1574
tp1575
((lp1576
(g408
g1272
tp1577
aF1.111111111111111
tp1578
s(g1
((lp1579
(I3
I2
tp1580
a(I4
I1
tp1581
a(I3
I3
tp1582
atp1583
Rp1584
g1
((lp1585
(I1
I2
tp1586
a(I2
I2
tp1587
a(I5
I3
tp1588
atp1589
Rp1590
tp1591
((lp1592
((I3
I2
tp1593
(I2
I3
tp1594
tp1595
aF-1048.4444444444443
tp1596
s(g1
((lp1597
g28
ag65
a(I3
I5
tp1598
atp1599
Rp1600
g1
((lp1601
g59
ag60
ag61
atp1602
Rp1603
tp1604
((lp1605
(g1598
(I3
I6
tp1606
tp1607
aF-1.111111111111111
tp1608
s(g1
((lp1609
g27
ag949
ag950
atp1610
Rp1611
g1
((lp1612
g954
ag633
ag366
atp1613
Rp1614
tp1615
((lp1616
(g950
g642
tp1617
aF0.555555555555556
tp1618
s(g1
((lp1619
(I4
I5
tp1620
a(I6
I3
tp1621
a(I5
I4
tp1622
a(I4
I1
tp1623
a(I5
I2
tp1624
atp1625
Rp1626
g1
((lp1627
(I1
I2
tp1628
a(I0
I3
tp1629
a(I2
I5
tp1630
a(I1
I4
tp1631
a(I2
I2
tp1632
atp1633
Rp1634
tp1635
((lp1636
((I5
I2
tp1637
(I5
I3
tp1638
tp1639
a((I5
I2
tp1640
(I4
I3
tp1641
tp1642
aF-48.916666666666664
tp1643
s(g1
((lp1644
(I3
I3
tp1645
a(I2
I1
tp1646
a(I2
I2
tp1647
atp1648
Rp1649
g1
((lp1650
(I4
I1
tp1651
a(I3
I4
tp1652
a(I1
I4
tp1653
atp1654
Rp1655
tp1656
((lp1657
((I2
I1
tp1658
(I3
I2
tp1659
tp1660
a((I2
I2
tp1661
(I3
I2
tp1662
tp1663
aF1.1111111111111107
tp1664
s(g1
((lp1665
(I4
I2
tp1666
a(I2
I3
tp1667
a(I4
I3
tp1668
atp1669
Rp1670
g1
((lp1671
(I3
I3
tp1672
a(I2
I1
tp1673
a(I3
I5
tp1674
atp1675
Rp1676
tp1677
((lp1678
((I4
I2
tp1679
(I5
I2
tp1680
tp1681
aF-2.1111111111111107
tp1682
s(g1
((lp1683
(I1
I2
tp1684
a(I3
I4
tp1685
a(I2
I2
tp1686
atp1687
Rp1688
g1
((lp1689
(I4
I1
tp1690
a(I2
I3
tp1691
a(I3
I5
tp1692
atp1693
Rp1694
tp1695
((lp1696
((I3
I4
tp1697
(I3
I3
tp1698
tp1699
aF-1.3333333333333335
tp1700
s(g1
((lp1701
(I4
I2
tp1702
a(I5
I4
tp1703
a(I1
I3
tp1704
atp1705
Rp1706
g1
((lp1707
(I4
I5
tp1708
a(I2
I5
tp1709
a(I3
I3
tp1710
atp1711
Rp1712
tp1713
((lp1714
((I4
I2
tp1715
(I4
I3
tp1716
tp1717
aF-1047.5555555555557
tp1718
s(g1
((lp1719
(I6
I3
tp1720
a(I4
I4
tp1721
a(I5
I3
tp1722
atp1723
Rp1724
g1
((lp1725
(I1
I2
tp1726
a(I0
I3
tp1727
a(I4
I1
tp1728
a(I1
I4
tp1729
atp1730
Rp1731
tp1732
((lp1733
((I5
I3
tp1734
(I0
I3
tp1735
tp1736
aF-47.333333333333336
tp1737
s(g1
((lp1738
g954
ag955
ag633
atp1739
Rp1740
g1
((lp1741
g27
ag949
ag950
atp1742
Rp1743
tp1744
((lp1745
(g955
(I1
I4
tp1746
tp1747
aF-2.1111111111111107
tp1748
s(g1
((lp1749
(I1
I3
tp1750
a(I4
I4
tp1751
a(I5
I3
tp1752
atp1753
Rp1754
g1
((lp1755
(I3
I2
tp1756
a(I4
I1
tp1757
a(I2
I1
tp1758
atp1759
Rp1760
tp1761
((lp1762
((I5
I3
tp1763
(I5
I2
tp1764
tp1765
aF-1048.111111111111
tp1766
s(g1
((lp1767
g409
ag96
a(I2
I2
tp1768
atp1769
Rp1770
g1
((lp1771
g413
a(I4
I4
tp1772
ag415
atp1773
Rp1774
tp1775
((lp1776
(g1768
(I2
I3
tp1777
tp1778
aF-0.3333333333333335
tp1779
s(g1
((lp1780
g413
ag1572
ag1048
atp1781
Rp1782
g1
((lp1783
g1052
ag1126
ag1053
atp1784
Rp1785
tp1786
((lp1787
(g1572
(I3
I4
tp1788
tp1789
aF-1051.1666666666665
tp1790
s(g1
((lp1791
(I4
I1
tp1792
a(I3
I2
tp1793
a(I3
I4
tp1794
atp1795
Rp1796
g1
((lp1797
(I4
I2
tp1798
a(I2
I1
tp1799
a(I2
I2
tp1800
atp1801
Rp1802
tp1803
((lp1804
((I4
I1
tp1805
(I3
I1
tp1806
tp1807
a((I3
I2
tp1808
(I3
I3
tp1809
tp1810
aF0.22222222222222232
tp1811
s(g1
((lp1812
(I4
I1
tp1813
a(I2
I3
tp1814
a(I3
I3
tp1815
atp1816
Rp1817
g1
((lp1818
(I1
I2
tp1819
a(I5
I2
tp1820
a(I2
I2
tp1821
atp1822
Rp1823
tp1824
((lp1825
((I3
I3
tp1826
(I3
I4
tp1827
tp1828
aF0.5555555555555556
tp1829
s(g1
((lp1830
g214
ag215
ag216
atp1831
Rp1832
g1
((lp1833
g301
ag209
ag210
atp1834
Rp1835
tp1836
((lp1837
(g215
(I2
I3
tp1838
tp1839
aF-1048.4444444444443
tp1840
s(g1
((lp1841
(I4
I1
tp1842
a(I2
I3
tp1843
a(I3
I3
tp1844
atp1845
Rp1846
g1
((lp1847
(I5
I4
tp1848
a(I3
I1
tp1849
a(I3
I2
tp1850
atp1851
Rp1852
tp1853
((lp1854
((I3
I3
tp1855
(I4
I3
tp1856
tp1857
aF-1051.8333333333333
tp1858
s(g1
((lp1859
g101
ag102
ag103
ag104
ag105
atp1860
Rp1861
g1
((lp1862
g93
ag861
ag94
ag95
ag96
atp1863
Rp1864
tp1865
((lp1866
(g102
g1443
tp1867
a(g104
(I3
I4
tp1868
tp1869
aF-49.55555555555555
tp1870
s(g1
((lp1871
(I4
I5
tp1872
a(I2
I3
tp1873
a(I1
I4
tp1874
atp1875
Rp1876
g1
((lp1877
(I6
I3
tp1878
a(I4
I2
tp1879
a(I1
I3
tp1880
atp1881
Rp1882
tp1883
((lp1884
((I1
I4
tp1885
(I2
I4
tp1886
tp1887
a((I2
I3
tp1888
(I3
I4
tp1889
tp1890
aF1.6666666666666663
tp1891
s(g1
((lp1892
(I4
I1
tp1893
a(I2
I3
tp1894
a(I4
I3
tp1895
atp1896
Rp1897
g1
((lp1898
(I3
I0
tp1899
a(I5
I4
tp1900
a(I3
I2
tp1901
atp1902
Rp1903
tp1904
((lp1905
((I4
I1
tp1906
(I4
I2
tp1907
tp1908
aF0.0
tp1909
s(g1
((lp1910
(I1
I2
tp1911
a(I4
I1
tp1912
a(I1
I4
tp1913
atp1914
Rp1915
g1
((lp1916
(I6
I3
tp1917
a(I0
I3
tp1918
a(I4
I4
tp1919
atp1920
Rp1921
tp1922
((lp1923
((I1
I4
tp1924
(I2
I3
tp1925
tp1926
aF0.8888888888888893
tp1927
s(g1
((lp1928
g540
ag60
ag541
atp1929
Rp1930
g1
((lp1931
(I2
I5
tp1932
ag535
ag65
atp1933
Rp1934
tp1935
((lp1936
(g541
(I2
I4
tp1937
tp1938
aF1.2222222222222223
tp1939
s(g1
((lp1940
g631
ag301
ag633
atp1941
Rp1942
g1
((lp1943
g305
ag626
ag627
atp1944
Rp1945
tp1946
((lp1947
(g301
(I2
I3
tp1948
tp1949
aF-3.333333333333333
tp1950
s(g1
((lp1951
g1265
ag413
a(I3
I4
tp1952
atp1953
Rp1954
g1
((lp1955
(I5
I2
tp1956
ag96
ag1768
atp1957
Rp1958
tp1959
((lp1960
(g1265
(I4
I4
tp1961
tp1962
aF-1.2222222222222223
tp1963
s(g1
((lp1964
g214
ag306
ag216
atp1965
Rp1966
g1
((lp1967
g300
ag301
ag209
atp1968
Rp1969
tp1970
((lp1971
(g216
(I3
I2
tp1972
tp1973
aF0.5555555555555556
tp1974
s(g1
((lp1975
g1956
a(I3
I4
tp1976
ag96
atp1977
Rp1978
g1
((lp1979
g1265
ag413
a(I3
I3
tp1980
atp1981
Rp1982
tp1983
((lp1984
(g1976
(I2
I3
tp1985
tp1986
a(g1956
(I4
I2
tp1987
tp1988
a(g1956
(I4
I1
tp1989
tp1990
a(g96
(I3
I2
tp1991
tp1992
aF-0.7777777777777775
tp1993
s(g1
((lp1994
g1956
a(I2
I3
tp1995
ag96
atp1996
Rp1997
g1
((lp1998
g1265
ag413
ag1952
atp1999
Rp2000
tp2001
((lp2002
(g1995
(I2
I2
tp2003
tp2004
aF-1049.5
tp2005
s(g1
((lp2006
g156
ag1202
ag158
ag157
ag159
atp2007
Rp2008
g1
((lp2009
g163
ag164
ag608
ag165
ag609
atp2010
Rp2011
tp2012
((lp2013
(g1202
(I3
I2
tp2014
tp2015
aF-48.92
tp2016
s(g1
((lp2017
(I5
I4
tp2018
a(I2
I3
tp2019
a(I4
I3
tp2020
atp2021
Rp2022
g1
((lp2023
(I2
I5
tp2024
a(I3
I1
tp2025
a(I3
I4
tp2026
atp2027
Rp2028
tp2029
((lp2030
((I4
I3
tp2031
(I4
I4
tp2032
tp2033
aF-1048.5
tp2034
s(g1
((lp2035
(I6
I3
tp2036
a(I0
I3
tp2037
a(I4
I4
tp2038
atp2039
Rp2040
g1
((lp2041
(I1
I2
tp2042
a(I4
I1
tp2043
a(I2
I3
tp2044
atp2045
Rp2046
tp2047
((lp2048
((I0
I3
tp2049
(I1
I3
tp2050
tp2051
a((I4
I4
tp2052
(I4
I3
tp2053
tp2054
aF-1050.2222222222222
tp2055
s(g1
((lp2056
(I0
I3
tp2057
a(I2
I4
tp2058
a(I5
I3
tp2059
atp2060
Rp2061
g1
((lp2062
(I3
I2
tp2063
a(I5
I2
tp2064
a(I2
I1
tp2065
atp2066
Rp2067
tp2068
((lp2069
((I0
I3
tp2070
(I1
I3
tp2071
tp2072
aF-1049.611111111111
tp2073
s(g1
((lp2074
(I5
I2
tp2075
a(I4
I3
tp2076
a(I2
I2
tp2077
atp2078
Rp2079
g1
((lp2080
(I3
I2
tp2081
a(I4
I1
tp2082
a(I5
I3
tp2083
atp2084
Rp2085
tp2086
((lp2087
((I5
I2
tp2088
(I4
I2
tp2089
tp2090
aF1.2222222222222223
tp2091
s(g1
((lp2092
(I6
I3
tp2093
a(I4
I2
tp2094
a(I1
I3
tp2095
atp2096
Rp2097
g1
((lp2098
(I4
I5
tp2099
a(I3
I4
tp2100
a(I1
I4
tp2101
atp2102
Rp2103
tp2104
((lp2105
((I6
I3
tp2106
(I5
I3
tp2107
tp2108
aF-1049.611111111111
tp2109
s(g1
((lp2110
g1052
a(I3
I1
tp2111
ag408
atp2112
Rp2113
g1
((lp2114
g413
ag415
a(I3
I6
tp2115
atp2116
Rp2117
tp2118
((lp2119
(g2111
(I2
I1
tp2120
tp2121
aF-1047.8333333333335
tp2122
s(g1
((lp2123
(I2
I3
tp2124
a(I4
I3
tp2125
a(I2
I2
tp2126
atp2127
Rp2128
g1
((lp2129
(I4
I1
tp2130
a(I3
I3
tp2131
a(I3
I5
tp2132
atp2133
Rp2134
tp2135
((lp2136
((I2
I2
tp2137
(I1
I2
tp2138
tp2139
aF-2.1111111111111107
tp2140
s(g1
((lp2141
(I1
I2
tp2142
a(I4
I2
tp2143
a(I5
I2
tp2144
atp2145
Rp2146
g1
((lp2147
(I3
I4
tp2148
a(I2
I1
tp2149
a(I4
I3
tp2150
atp2151
Rp2152
tp2153
((lp2154
((I5
I2
tp2155
(I4
I1
tp2156
tp2157
aF-1047.2777777777776
tp2158
s(g1
((lp2159
(I4
I5
tp2160
a(I2
I3
tp2161
a(I3
I3
tp2162
atp2163
Rp2164
g1
((lp2165
(I5
I2
tp2166
a(I3
I4
tp2167
a(I3
I5
tp2168
atp2169
Rp2170
tp2171
((lp2172
((I3
I3
tp2173
(I4
I3
tp2174
tp2175
aF-1051.8333333333333
tp2176
s(g1
((lp2177
(I2
I5
tp2178
a(I3
I1
tp2179
a(I4
I3
tp2180
atp2181
Rp2182
g1
((lp2183
(I5
I4
tp2184
a(I4
I4
tp2185
a(I3
I3
tp2186
atp2187
Rp2188
tp2189
((lp2190
((I3
I1
tp2191
(I3
I2
tp2192
tp2193
aF-1053.5
tp2194
s(g1
((lp2195
g305
ag1493
ag627
atp2196
Rp2197
g1
((lp2198
g631
ag301
ag633
atp2199
Rp2200
tp2201
((lp2202
(g1493
g1431
tp2203
aF0.44444444444444464
tp2204
s(g1
((lp2205
g102
ag103
ag105
a(I2
I5
tp2206
atp2207
Rp2208
g1
((lp2209
g93
ag861
ag96
a(I5
I3
tp2210
atp2211
Rp2212
tp2213
((lp2214
(g103
(I4
I5
tp2215
tp2216
a(g103
(I4
I4
tp2217
tp2218
a(g2206
(I3
I4
tp2219
tp2220
a(g2206
(I3
I5
tp2221
tp2222
aF0.5
tp2223
s(g1
((lp2224
g27
ag179
ag370
atp2225
Rp2226
g1
((lp2227
g175
ag22
ag23
atp2228
Rp2229
tp2230
((lp2231
(g370
(I1
I2
tp2232
tp2233
aF-1047.7222222222224
tp2234
s(g1
((lp2235
g156
ag159
ag158
ag157
ag613
atp2236
Rp2237
g1
((lp2238
g163
ag164
ag608
ag165
a(I2
I2
tp2239
atp2240
Rp2241
tp2242
((lp2243
(g613
(I2
I2
tp2244
tp2245
aF-1.6666666666666665
tp2246
s(g1
((lp2247
(I1
I2
tp2248
a(I0
I3
tp2249
a(I3
I4
tp2250
a(I3
I2
tp2251
a(I1
I4
tp2252
atp2253
Rp2254
g1
((lp2255
(I6
I3
tp2256
a(I4
I4
tp2257
a(I4
I1
tp2258
a(I4
I3
tp2259
a(I5
I3
tp2260
atp2261
Rp2262
tp2263
((lp2264
((I3
I4
tp2265
(I4
I4
tp2266
tp2267
aF-1.6666666666666665
tp2268
s(g1
((lp2269
(I3
I4
tp2270
a(I4
I1
tp2271
a(I2
I3
tp2272
atp2273
Rp2274
g1
((lp2275
(I3
I3
tp2276
a(I2
I1
tp2277
a(I2
I2
tp2278
atp2279
Rp2280
tp2281
((lp2282
((I2
I3
tp2283
(I1
I4
tp2284
tp2285
aF-1047.7222222222224
tp2286
s(g1
((lp2287
(I0
I3
tp2288
a(I1
I3
tp2289
a(I2
I3
tp2290
a(I2
I1
tp2291
atp2292
Rp2293
g1
((lp2294
(I6
I3
tp2295
a(I3
I2
tp2296
a(I5
I2
tp2297
a(I5
I4
tp2298
a(I2
I4
tp2299
atp2300
Rp2301
tp2302
((lp2303
((I2
I3
tp2304
(I2
I4
tp2305
tp2306
aF-49.27777777777778
tp2307
s(g1
((lp2308
g210
a(I1
I3
tp2309
ag166
atp2310
Rp2311
g1
((lp2312
g214
ag333
ag1423
atp2313
Rp2314
tp2315
((lp2316
(g2309
(I1
I4
tp2317
tp2318
aF-1048.111111111111
tp2319
s(g1
((lp2320
(I4
I1
tp2321
a(I2
I3
tp2322
a(I1
I4
tp2323
atp2324
Rp2325
g1
((lp2326
(I3
I3
tp2327
a(I4
I3
tp2328
a(I2
I2
tp2329
atp2330
Rp2331
tp2332
((lp2333
((I2
I3
tp2334
(I3
I2
tp2335
tp2336
aF-3.555555555555556
tp2337
s(g1
((lp2338
(I4
I5
tp2339
a(I3
I4
tp2340
a(I5
I3
tp2341
atp2342
Rp2343
g1
((lp2344
(I4
I4
tp2345
a(I2
I4
tp2346
a(I4
I3
tp2347
atp2348
Rp2349
tp2350
((lp2351
((I4
I5
tp2352
(I3
I5
tp2353
tp2354
aF-1050.888888888889
tp2355
s(g1
((lp2356
(I1
I2
tp2357
a(I3
I3
tp2358
a(I2
I2
tp2359
atp2360
Rp2361
g1
((lp2362
(I3
I4
tp2363
a(I4
I1
tp2364
a(I2
I3
tp2365
atp2366
Rp2367
tp2368
((lp2369
((I1
I2
tp2370
(I2
I1
tp2371
tp2372
aF-1047.7222222222224
tp2373
s(g1
((lp2374
(I4
I4
tp2375
a(I2
I4
tp2376
a(I4
I3
tp2377
atp2378
Rp2379
g1
((lp2380
(I5
I3
tp2381
a(I3
I4
tp2382
a(I3
I5
tp2383
atp2384
Rp2385
tp2386
((lp2387
((I4
I4
tp2388
(I5
I4
tp2389
tp2390
aF1.2222222222222223
tp2391
s(g1
((lp2392
(I5
I4
tp2393
a(I1
I3
tp2394
a(I4
I4
tp2395
atp2396
Rp2397
g1
((lp2398
(I2
I5
tp2399
a(I3
I3
tp2400
a(I4
I3
tp2401
atp2402
Rp2403
tp2404
((lp2405
((I1
I3
tp2406
(I1
I4
tp2407
tp2408
aF-1048.2777777777776
tp2409
s(g1
((lp2410
(I4
I5
tp2411
a(I3
I4
tp2412
a(I1
I4
tp2413
atp2414
Rp2415
g1
((lp2416
(I4
I2
tp2417
a(I1
I3
tp2418
a(I5
I3
tp2419
atp2420
Rp2421
tp2422
((lp2423
((I1
I4
tp2424
(I2
I5
tp2425
tp2426
a((I4
I5
tp2427
(I3
I6
tp2428
tp2429
a((I4
I5
tp2430
(I3
I5
tp2431
tp2432
aF1.4444444444444442
tp2433
s(g1
((lp2434
(I6
I3
tp2435
a(I4
I1
tp2436
a(I4
I3
tp2437
a(I5
I3
tp2438
atp2439
Rp2440
g1
((lp2441
(I1
I2
tp2442
a(I0
I3
tp2443
a(I4
I4
tp2444
a(I3
I2
tp2445
a(I1
I4
tp2446
atp2447
Rp2448
tp2449
((lp2450
((I4
I3
tp2451
(I4
I4
tp2452
tp2453
aF-49.27777777777778
tp2454
s(g1
((lp2455
g1438
ag1976
ag863
ag96
atp2456
Rp2457
g1
((lp2458
g1265
ag105
a(I2
I3
tp2459
ag1980
atp2460
Rp2461
tp2462
((lp2463
(g863
(I5
I2
tp2464
tp2465
aF-50.72222222222222
tp2466
s(g1
((lp2467
g631
ag300
ag301
atp2468
Rp2469
g1
((lp2470
g214
ag305
ag1493
atp2471
Rp2472
tp2473
((lp2474
(g300
g342
tp2475
aF-1049.388888888889
tp2476
s(g1
((lp2477
(I2
I5
tp2478
a(I5
I2
tp2479
a(I3
I2
tp2480
atp2481
Rp2482
g1
((lp2483
(I4
I4
tp2484
a(I3
I4
tp2485
a(I3
I3
tp2486
atp2487
Rp2488
tp2489
((lp2490
((I3
I2
tp2491
(I4
I3
tp2492
tp2493
aF-1050.5555555555557
tp2494
s(g1
((lp2495
(I1
I2
tp2496
a(I2
I2
tp2497
a(I5
I3
tp2498
atp2499
Rp2500
g1
((lp2501
(I4
I1
tp2502
a(I2
I3
tp2503
a(I3
I3
tp2504
atp2505
Rp2506
tp2507
((lp2508
((I5
I3
tp2509
(I5
I2
tp2510
tp2511
aF-1048.2777777777776
tp2512
s(g1
((lp2513
(I4
I4
tp2514
a(I2
I3
tp2515
a(I4
I3
tp2516
atp2517
Rp2518
g1
((lp2519
(I5
I2
tp2520
a(I3
I4
tp2521
a(I3
I5
tp2522
atp2523
Rp2524
tp2525
((lp2526
((I2
I3
tp2527
(I2
I4
tp2528
tp2529
aF0.7777777777777779
tp2530
s(g1
((lp2531
g27
ag28
ag179
atp2532
Rp2533
g1
((lp2534
g21
ag22
ag23
atp2535
Rp2536
tp2537
((lp2538
(g179
(I2
I3
tp2539
tp2540
aF-1050.5555555555557
tp2541
s(g1
((lp2542
(I4
I2
tp2543
a(I3
I4
tp2544
a(I5
I2
tp2545
atp2546
Rp2547
g1
((lp2548
(I2
I1
tp2549
a(I4
I3
tp2550
a(I3
I5
tp2551
atp2552
Rp2553
tp2554
((lp2555
((I3
I4
tp2556
(I3
I3
tp2557
tp2558
aF-1.3333333333333335
tp2559
s(g1
((lp2560
g413
ag415
ag2115
atp2561
Rp2562
g1
((lp2563
g1052
ag408
ag1101
atp2564
Rp2565
tp2566
((lp2567
(g2115
(I3
I5
tp2568
tp2569
aF-1.1111111111111112
tp2570
s(g1
((lp2571
g1265
ag413
ag1980
atp2572
Rp2573
g1
((lp2574
g1995
ag1956
ag96
atp2575
Rp2576
tp2577
((lp2578
(g1980
(I3
I4
tp2579
tp2580
aF-0.5555555555555556
tp2581
s(g1
((lp2582
(I2
I5
tp2583
a(I3
I2
tp2584
a(I4
I3
tp2585
atp2586
Rp2587
g1
((lp2588
(I4
I5
tp2589
a(I4
I4
tp2590
a(I3
I3
tp2591
atp2592
Rp2593
tp2594
((lp2595
((I4
I3
tp2596
(I5
I2
tp2597
tp2598
aF-1047.7222222222224
tp2599
s(g1
((lp2600
(I3
I2
tp2601
a(I3
I3
tp2602
a(I2
I1
tp2603
atp2604
Rp2605
g1
((lp2606
(I4
I2
tp2607
a(I1
I3
tp2608
a(I5
I2
tp2609
atp2610
Rp2611
tp2612
((lp2613
((I3
I2
tp2614
(I4
I3
tp2615
tp2616
aF-1048.4444444444443
tp2617
s(g1
((lp2618
g413
ag1952
ag1772
atp2619
Rp2620
g1
((lp2621
g96
ag409
ag1768
atp2622
Rp2623
tp2624
((lp2625
(g1952
(I3
I3
tp2626
tp2627
aF-1046.9444444444443
tp2628
s(g1
((lp2629
(I3
I3
tp2630
a(I2
I1
tp2631
a(I3
I5
tp2632
atp2633
Rp2634
g1
((lp2635
(I5
I2
tp2636
a(I2
I3
tp2637
a(I4
I3
tp2638
atp2639
Rp2640
tp2641
((lp2642
((I3
I3
tp2643
(I3
I2
tp2644
tp2645
aF0.555555555555556
tp2646
s(g1
((lp2647
g27
ag949
a(I3
I3
tp2648
atp2649
Rp2650
g1
((lp2651
g1000
ag22
ag366
atp2652
Rp2653
tp2654
((lp2655
(g2648
(I2
I3
tp2656
tp2657
aF-2.333333333333333
tp2658
s(g1
((lp2659
g214
ag305
ag306
atp2660
Rp2661
g1
((lp2662
g631
ag300
ag301
atp2663
Rp2664
tp2665
((lp2666
(g306
(I3
I3
tp2667
tp2668
a(g306
(I3
I4
tp2669
tp2670
aF1.3333333333333335
tp2671
s(g1
((lp2672
(I3
I2
tp2673
a(I3
I3
tp2674
a(I2
I2
tp2675
atp2676
Rp2677
g1
((lp2678
(I4
I1
tp2679
a(I2
I3
tp2680
a(I1
I4
tp2681
atp2682
Rp2683
tp2684
((lp2685
((I3
I2
tp2686
(I4
I3
tp2687
tp2688
aF-1047.7222222222224
tp2689
s(g1
((lp2690
(I6
I3
tp2691
a(I4
I1
tp2692
a(I5
I4
tp2693
a(I5
I2
tp2694
a(I4
I5
tp2695
atp2696
Rp2697
g1
((lp2698
(I1
I2
tp2699
a(I0
I3
tp2700
a(I2
I4
tp2701
a(I1
I4
tp2702
a(I2
I1
tp2703
atp2704
Rp2705
tp2706
((lp2707
((I5
I4
tp2708
(I5
I3
tp2709
tp2710
a((I5
I4
tp2711
(I4
I3
tp2712
tp2713
aF-48.916666666666664
tp2714
s(g1
((lp2715
(I6
I3
tp2716
a(I4
I2
tp2717
a(I0
I3
tp2718
atp2719
Rp2720
g1
((lp2721
(I4
I5
tp2722
a(I2
I3
tp2723
a(I1
I4
tp2724
atp2725
Rp2726
tp2727
((lp2728
((I0
I3
tp2729
(I1
I3
tp2730
tp2731
a((I4
I2
tp2732
(I4
I3
tp2733
tp2734
aF-1050.2222222222222
tp2735
s(g1
((lp2736
(I3
I3
tp2737
a(I4
I3
tp2738
a(I2
I2
tp2739
atp2740
Rp2741
g1
((lp2742
(I3
I2
tp2743
a(I4
I1
tp2744
a(I1
I4
tp2745
atp2746
Rp2747
tp2748
((lp2749
((I2
I2
tp2750
(I2
I1
tp2751
tp2752
aF0.4444444444444442
tp2753
s(g1
((lp2754
g413
ag1772
ag415
atp2755
Rp2756
g1
((lp2757
g408
ag96
ag409
atp2758
Rp2759
tp2760
((lp2761
(g1772
g1868
tp2762
aF-1046.9444444444443
tp2763
s(g1
((lp2764
(I6
I3
tp2765
a(I0
I3
tp2766
a(I2
I4
tp2767
atp2768
Rp2769
g1
((lp2770
(I5
I2
tp2771
a(I2
I1
tp2772
a(I4
I3
tp2773
atp2774
Rp2775
tp2776
((lp2777
((I6
I3
tp2778
(I5
I3
tp2779
tp2780
a((I2
I4
tp2781
(I2
I3
tp2782
tp2783
aF-1050.2222222222222
tp2784
s(g1
((lp2785
(I3
I4
tp2786
a(I2
I1
tp2787
a(I4
I3
tp2788
atp2789
Rp2790
g1
((lp2791
(I4
I2
tp2792
a(I4
I1
tp2793
a(I3
I3
tp2794
atp2795
Rp2796
tp2797
((lp2798
((I4
I3
tp2799
(I5
I4
tp2800
tp2801
aF-1047.7222222222224
tp2802
s(g1
((lp2803
(I3
I3
tp2804
a(I2
I1
tp2805
a(I3
I5
tp2806
atp2807
Rp2808
g1
((lp2809
(I4
I2
tp2810
a(I3
I4
tp2811
a(I5
I2
tp2812
atp2813
Rp2814
tp2815
((lp2816
((I3
I3
tp2817
(I4
I3
tp2818
tp2819
aF-2.333333333333333
tp2820
s(g1
((lp2821
(I3
I2
tp2822
a(I4
I1
tp2823
a(I3
I5
tp2824
atp2825
Rp2826
g1
((lp2827
(I1
I2
tp2828
a(I4
I3
tp2829
a(I2
I2
tp2830
atp2831
Rp2832
tp2833
((lp2834
((I3
I2
tp2835
(I3
I3
tp2836
tp2837
aF-3.0000000000000004
tp2838
s(g1
((lp2839
(I5
I4
tp2840
a(I4
I4
tp2841
a(I2
I3
tp2842
atp2843
Rp2844
g1
((lp2845
(I2
I5
tp2846
a(I3
I1
tp2847
a(I3
I3
tp2848
atp2849
Rp2850
tp2851
((lp2852
((I2
I3
tp2853
(I3
I2
tp2854
tp2855
aF0.555555555555556
tp2856
s(g1
((lp2857
(I4
I5
tp2858
a(I2
I5
tp2859
a(I3
I4
tp2860
atp2861
Rp2862
g1
((lp2863
(I4
I2
tp2864
a(I5
I4
tp2865
a(I1
I3
tp2866
atp2867
Rp2868
tp2869
((lp2870
((I3
I4
tp2871
(I3
I3
tp2872
tp2873
aF1.4444444444444442
tp2874
s(g1
((lp2875
g413
ag1130
ag1048
atp2876
Rp2877
g1
((lp2878
g1052
a(I2
I3
tp2879
ag1053
atp2880
Rp2881
tp2882
((lp2883
(g1130
(I4
I3
tp2884
tp2885
aF-1052.388888888889
tp2886
s(g1
((lp2887
g1052
a(I3
I2
tp2888
ag408
atp2889
Rp2890
g1
((lp2891
(I2
I5
tp2892
ag413
ag415
atp2893
Rp2894
tp2895
((lp2896
(g2888
(I3
I1
tp2897
tp2898
aF-2.1111111111111116
tp2899
s(g1
((lp2900
(I3
I1
tp2901
a(I3
I4
tp2902
a(I3
I3
tp2903
atp2904
Rp2905
g1
((lp2906
(I2
I3
tp2907
a(I2
I1
tp2908
a(I4
I3
tp2909
atp2910
Rp2911
tp2912
((lp2913
((I3
I4
tp2914
(I3
I5
tp2915
tp2916
a((I3
I4
tp2917
(I4
I4
tp2918
tp2919
a((I3
I3
tp2920
(I3
I2
tp2921
tp2922
a((I3
I1
tp2923
(I3
I2
tp2924
tp2925
aF-1.9999999999999998
tp2926
s(g1
((lp2927
(I1
I2
tp2928
a(I3
I2
tp2929
a(I4
I1
tp2930
atp2931
Rp2932
g1
((lp2933
(I1
I3
tp2934
a(I4
I4
tp2935
a(I5
I3
tp2936
atp2937
Rp2938
tp2939
((lp2940
((I1
I2
tp2941
(I2
I1
tp2942
tp2943
a((I4
I1
tp2944
(I3
I0
tp2945
tp2946
a((I4
I1
tp2947
(I3
I1
tp2948
tp2949
aF1.4444444444444442
tp2950
s(g1
((lp2951
(I3
I1
tp2952
a(I3
I3
tp2953
a(I3
I5
tp2954
atp2955
Rp2956
g1
((lp2957
(I4
I4
tp2958
a(I2
I3
tp2959
a(I4
I3
tp2960
atp2961
Rp2962
tp2963
((lp2964
((I3
I5
tp2965
(I2
I5
tp2966
tp2967
aF-0.7777777777777777
tp2968
s(g1
((lp2969
g27
ag949
a(I3
I4
tp2970
atp2971
Rp2972
g1
((lp2973
g633
ag366
ag22
atp2974
Rp2975
tp2976
((lp2977
(g2970
g1431
tp2978
aF-3.0000000000000004
tp2979
s(g1
((lp2980
(I5
I4
tp2981
a(I1
I3
tp2982
a(I4
I3
tp2983
atp2984
Rp2985
g1
((lp2986
(I2
I5
tp2987
a(I3
I4
tp2988
a(I3
I3
tp2989
atp2990
Rp2991
tp2992
((lp2993
((I4
I3
tp2994
(I4
I4
tp2995
tp2996
aF-1051.5555555555557
tp2997
s(g1
((lp2998
g366
ag633
ag22
atp2999
Rp3000
g1
((lp3001
g27
ag949
ag2648
atp3002
Rp3003
tp3004
((lp3005
(g633
(I3
I2
tp3006
tp3007
aF0.555555555555556
tp3008
s(g1
((lp3009
g156
ag1202
ag158
ag159
ag1203
atp3010
Rp3011
g1
((lp3012
g163
ag164
ag165
ag1198
ag609
atp3013
Rp3014
tp3015
((lp3016
(g1203
(I3
I4
tp3017
tp3018
aF-48.75
tp3019
s(g1
((lp3020
g93
ag861
ag94
ag95
ag96
atp3021
Rp3022
g1
((lp3023
g101
ag102
ag103
a(I3
I4
tp3024
ag105
atp3025
Rp3026
tp3027
((lp3028
(g94
(I6
I3
tp3029
tp3030
a(g95
(I1
I4
tp3031
tp3032
a(g95
g2221
tp3033
aF-49.27777777777778
tp3034
s(g1
((lp3035
(I4
I2
tp3036
a(I4
I1
tp3037
a(I2
I3
tp3038
atp3039
Rp3040
g1
((lp3041
(I3
I1
tp3042
a(I3
I4
tp3043
a(I3
I3
tp3044
atp3045
Rp3046
tp3047
((lp3048
((I4
I2
tp3049
(I4
I3
tp3050
tp3051
aF-3.333333333333333
tp3052
s(g1
((lp3053
g210
ag209
ag166
atp3054
Rp3055
g1
((lp3056
g214
ag333
ag216
atp3057
Rp3058
tp3059
((lp3060
(g166
g908
tp3061
aF-1047.5555555555557
tp3062
s(g1
((lp3063
(I4
I5
tp3064
a(I2
I3
tp3065
a(I4
I3
tp3066
atp3067
Rp3068
g1
((lp3069
(I3
I2
tp3070
a(I3
I4
tp3071
a(I3
I5
tp3072
atp3073
Rp3074
tp3075
((lp3076
((I4
I3
tp3077
(I4
I4
tp3078
tp3079
aF-1048.611111111111
tp3080
s(g1
((lp3081
(I2
I3
tp3082
a(I2
I1
tp3083
a(I4
I3
tp3084
atp3085
Rp3086
g1
((lp3087
(I3
I1
tp3088
a(I3
I3
tp3089
a(I3
I5
tp3090
atp3091
Rp3092
tp3093
((lp3094
((I2
I1
tp3095
(I2
I2
tp3096
tp3097
aF-2.0
tp3098
s(g1
((lp3099
g27
ag28
ag29
atp3100
Rp3101
g1
((lp3102
g22
ag61
ag23
atp3103
Rp3104
tp3105
((lp3106
(g29
g2669
tp3107
aF-3.555555555555556
tp3108
s(g1
((lp3109
g540
ag60
ag381
atp3110
Rp3111
g1
((lp3112
g535
ag65
ag536
atp3113
Rp3114
tp3115
((lp3116
(g381
g1746
tp3117
aF1.2222222222222223
tp3118
s(g1
((lp3119
(I3
I2
tp3120
a(I3
I3
tp3121
a(I3
I5
tp3122
atp3123
Rp3124
g1
((lp3125
(I4
I5
tp3126
a(I2
I3
tp3127
a(I4
I3
tp3128
atp3129
Rp3130
tp3131
((lp3132
((I3
I2
tp3133
(I3
I1
tp3134
tp3135
a((I3
I2
tp3136
(I2
I2
tp3137
tp3138
a((I3
I3
tp3139
(I3
I4
tp3140
tp3141
a((I3
I5
tp3142
(I3
I4
tp3143
tp3144
aF-1.9999999999999998
tp3145
s(g1
((lp3146
(I5
I4
tp3147
a(I3
I1
tp3148
a(I3
I2
tp3149
atp3150
Rp3151
g1
((lp3152
(I4
I1
tp3153
a(I2
I3
tp3154
a(I4
I3
tp3155
atp3156
Rp3157
tp3158
((lp3159
((I3
I1
tp3160
(I3
I0
tp3161
tp3162
aF-1.111111111111111
tp3163
s(g1
((lp3164
(I5
I4
tp3165
a(I2
I4
tp3166
a(I4
I3
tp3167
atp3168
Rp3169
g1
((lp3170
(I4
I5
tp3171
a(I3
I4
tp3172
a(I5
I3
tp3173
atp3174
Rp3175
tp3176
((lp3177
((I5
I4
tp3178
(I4
I4
tp3179
tp3180
aF1.2222222222222223
tp3181
s(g1
((lp3182
(I5
I2
tp3183
a(I3
I4
tp3184
a(I3
I5
tp3185
atp3186
Rp3187
g1
((lp3188
(I4
I4
tp3189
a(I2
I4
tp3190
a(I4
I3
tp3191
atp3192
Rp3193
tp3194
((lp3195
((I5
I2
tp3196
(I5
I3
tp3197
tp3198
aF-1.5555555555555556
tp3199
s(g1
((lp3200
(I4
I1
tp3201
a(I3
I3
tp3202
a(I2
I1
tp3203
atp3204
Rp3205
g1
((lp3206
(I1
I2
tp3207
a(I2
I3
tp3208
a(I5
I3
tp3209
atp3210
Rp3211
tp3212
((lp3213
((I2
I1
tp3214
(I3
I2
tp3215
tp3216
aF0.2222222222222221
tp3217
s(g1
((lp3218
(I3
I2
tp3219
a(I4
I4
tp3220
a(I5
I4
tp3221
atp3222
Rp3223
g1
((lp3224
(I2
I5
tp3225
a(I3
I1
tp3226
a(I4
I3
tp3227
atp3228
Rp3229
tp3230
((lp3231
((I3
I2
tp3232
(I3
I3
tp3233
tp3234
aF-1.3333333333333335
tp3235
s(g1
((lp3236
g413
ag415
a(I2
I4
tp3237
atp3238
Rp3239
g1
((lp3240
g1052
ag2888
ag408
atp3241
Rp3242
tp3243
((lp3244
(g3237
(I2
I5
tp3245
tp3246
aF-1047.111111111111
tp3247
s(g1
((lp3248
g27
ag949
ag370
atp3249
Rp3250
g1
((lp3251
g22
ag366
ag23
atp3252
Rp3253
tp3254
((lp3255
(g949
(I3
I2
tp3256
tp3257
aF-1053.5
tp3258
s(g1
((lp3259
(I2
I3
tp3260
a(I4
I3
tp3261
a(I2
I2
tp3262
atp3263
Rp3264
g1
((lp3265
(I3
I2
tp3266
a(I3
I1
tp3267
a(I1
I4
tp3268
atp3269
Rp3270
tp3271
((lp3272
((I4
I3
tp3273
(I4
I2
tp3274
tp3275
aF0.7777777777777779
tp3276
s(g1
((lp3277
g2892
ag413
ag415
atp3278
Rp3279
g1
((lp3280
g1052
ag2111
ag408
atp3281
Rp3282
tp3283
((lp3284
(g2892
(I3
I6
tp3285
tp3286
aF-1048.2222222222222
tp3287
s(g1
((lp3288
(I4
I2
tp3289
a(I4
I1
tp3290
a(I2
I2
tp3291
atp3292
Rp3293
g1
((lp3294
(I3
I2
tp3295
a(I3
I1
tp3296
a(I3
I4
tp3297
atp3298
Rp3299
tp3300
((lp3301
((I2
I2
tp3302
(I2
I3
tp3303
tp3304
aF-1.3333333333333335
tp3305
s(g1
((lp3306
(I4
I1
tp3307
a(I2
I3
tp3308
a(I4
I3
tp3309
atp3310
Rp3311
g1
((lp3312
(I3
I2
tp3313
a(I3
I1
tp3314
a(I3
I4
tp3315
atp3316
Rp3317
tp3318
((lp3319
((I4
I3
tp3320
(I4
I2
tp3321
tp3322
aF-1048.611111111111
tp3323
s(g1
((lp3324
(I2
I5
tp3325
a(I5
I2
tp3326
a(I4
I3
tp3327
atp3328
Rp3329
g1
((lp3330
(I4
I4
tp3331
a(I2
I3
tp3332
a(I3
I3
tp3333
atp3334
Rp3335
tp3336
((lp3337
((I4
I3
tp3338
(I3
I4
tp3339
tp3340
aF-3.555555555555556
tp3341
s(g1
((lp3342
(I4
I1
tp3343
a(I2
I3
tp3344
a(I3
I5
tp3345
atp3346
Rp3347
g1
((lp3348
(I1
I2
tp3349
a(I3
I3
tp3350
a(I2
I2
tp3351
atp3352
Rp3353
tp3354
((lp3355
((I3
I5
tp3356
(I3
I4
tp3357
tp3358
aF-1053.5
tp3359
s(g1
((lp3360
g59
ag23
ag61
atp3361
Rp3362
g1
((lp3363
g28
ag65
ag1598
atp3364
Rp3365
tp3366
((lp3367
(g23
g2656
tp3368
aF-1051.8333333333333
tp3369
s(g1
((lp3370
g863
ag1438
ag96
ag862
atp3371
Rp3372
g1
((lp3373
g1265
ag105
a(I3
I2
tp3374
ag867
atp3375
Rp3376
tp3377
((lp3378
(g862
(I2
I4
tp3379
tp3380
aF-46.05555555555556
tp3381
s(g1
((lp3382
(I4
I4
tp3383
a(I3
I4
tp3384
a(I3
I3
tp3385
atp3386
Rp3387
g1
((lp3388
(I2
I5
tp3389
a(I5
I2
tp3390
a(I4
I3
tp3391
atp3392
Rp3393
tp3394
((lp3395
((I3
I4
tp3396
(I2
I3
tp3397
tp3398
aF-1047.7222222222224
tp3399
s(g1
((lp3400
(I2
I5
tp3401
a(I3
I2
tp3402
a(I4
I3
tp3403
atp3404
Rp3405
g1
((lp3406
(I4
I5
tp3407
a(I4
I4
tp3408
a(I1
I4
tp3409
atp3410
Rp3411
tp3412
((lp3413
((I4
I3
tp3414
(I3
I3
tp3415
tp3416
a((I4
I3
tp3417
(I3
I4
tp3418
tp3419
aF1.3333333333333335
tp3420
s(g1
((lp3421
g1052
ag408
ag409
atp3422
Rp3423
g1
((lp3424
g413
ag415
ag3237
atp3425
Rp3426
tp3427
((lp3428
(g409
(I3
I2
tp3429
tp3430
aF-0.7777777777777777
tp3431
s(g1
((lp3432
g631
ag632
ag633
atp3433
Rp3434
g1
((lp3435
g305
a(I3
I4
tp3436
ag627
atp3437
Rp3438
tp3439
((lp3440
(g632
g221
tp3441
aF-1048.611111111111
tp3442
s(g1
((lp3443
(I4
I5
tp3444
a(I4
I4
tp3445
a(I1
I4
tp3446
atp3447
Rp3448
g1
((lp3449
(I2
I5
tp3450
a(I3
I4
tp3451
a(I3
I2
tp3452
atp3453
Rp3454
tp3455
((lp3456
((I1
I4
tp3457
(I2
I4
tp3458
tp3459
aF-1049.388888888889
tp3460
s(g1
((lp3461
g1265
ag867
ag3374
ag105
atp3462
Rp3463
g1
((lp3464
g1438
ag96
ag863
a(I2
I4
tp3465
atp3466
Rp3467
tp3468
((lp3469
(g867
g1985
tp3470
aF-48.75
tp3471
s(g1
((lp3472
(I1
I2
tp3473
a(I2
I4
tp3474
a(I5
I3
tp3475
atp3476
Rp3477
g1
((lp3478
(I4
I1
tp3479
a(I3
I3
tp3480
a(I2
I1
tp3481
atp3482
Rp3483
tp3484
((lp3485
((I2
I4
tp3486
(I2
I3
tp3487
tp3488
aF-1047.5555555555557
tp3489
s(g1
((lp3490
(I6
I3
tp3491
a(I5
I4
tp3492
a(I5
I2
tp3493
a(I3
I2
tp3494
atp3495
Rp3496
g1
((lp3497
(I0
I3
tp3498
a(I1
I3
tp3499
a(I2
I4
tp3500
a(I2
I1
tp3501
atp3502
Rp3503
tp3504
((lp3505
((I3
I2
tp3506
(I2
I1
tp3507
tp3508
aF-48.111111111111114
tp3509
s(g1
((lp3510
g954
ag366
ag633
atp3511
Rp3512
g1
((lp3513
g27
ag949
ag2970
atp3514
Rp3515
tp3516
((lp3517
(g954
g221
tp3518
aF-1048.5
tp3519
s(g1
((lp3520
(I3
I2
tp3521
a(I4
I1
tp3522
a(I2
I1
tp3523
atp3524
Rp3525
g1
((lp3526
(I1
I2
tp3527
a(I2
I4
tp3528
a(I5
I3
tp3529
atp3530
Rp3531
tp3532
((lp3533
((I3
I2
tp3534
(I3
I3
tp3535
tp3536
aF1.4444444444444442
tp3537
s(g1
((lp3538
(I6
I3
tp3539
ag93
ag861
ag96
atp3540
Rp3541
g1
((lp3542
g102
ag103
ag105
ag2206
atp3543
Rp3544
tp3545
((lp3546
(g3539
(I5
I3
tp3547
tp3548
aF-48.361111111111114
tp3549
s(g1
((lp3550
(I4
I5
tp3551
a(I4
I4
tp3552
a(I3
I3
tp3553
atp3554
Rp3555
g1
((lp3556
(I2
I5
tp3557
a(I5
I2
tp3558
a(I3
I2
tp3559
atp3560
Rp3561
tp3562
((lp3563
((I4
I5
tp3564
(I3
I4
tp3565
tp3566
a((I4
I4
tp3567
(I3
I4
tp3568
tp3569
aF1.1111111111111107
tp3570
s(g1
((lp3571
g156
a(I4
I1
tp3572
ag158
ag159
ag1203
atp3573
Rp3574
g1
((lp3575
g1197
ag163
ag165
ag1198
ag609
atp3576
Rp3577
tp3578
((lp3579
((I4
I5
tp3580
(I4
I4
tp3581
tp3582
a((I4
I1
tp3583
(I4
I2
tp3584
tp3585
aF-1.5
tp3586
s(g1
((lp3587
(I1
I2
tp3588
a(I5
I2
tp3589
a(I2
I2
tp3590
atp3591
Rp3592
g1
((lp3593
(I3
I4
tp3594
a(I4
I1
tp3595
a(I2
I3
tp3596
atp3597
Rp3598
tp3599
((lp3600
((I1
I2
tp3601
(I2
I1
tp3602
tp3603
aF-1047.2777777777776
tp3604
s(g1
((lp3605
(I3
I2
tp3606
a(I1
I3
tp3607
a(I2
I1
tp3608
atp3609
Rp3610
g1
((lp3611
(I4
I2
tp3612
a(I2
I3
tp3613
a(I2
I2
tp3614
atp3615
Rp3616
tp3617
((lp3618
((I2
I1
tp3619
(I3
I1
tp3620
tp3621
aF-1050.888888888889
tp3622
s(g1
((lp3623
g1932
ag535
ag65
atp3624
Rp3625
g1
((lp3626
g540
ag60
a(I2
I4
tp3627
atp3628
Rp3629
tp3630
((lp3631
(g1932
(I3
I5
tp3632
tp3633
aF-1050.888888888889
tp3634
s(g1
((lp3635
(I4
I5
tp3636
a(I2
I3
tp3637
a(I4
I3
tp3638
atp3639
Rp3640
g1
((lp3641
(I5
I2
tp3642
a(I3
I4
tp3643
a(I3
I6
tp3644
atp3645
Rp3646
tp3647
((lp3648
((I4
I5
tp3649
(I4
I4
tp3650
tp3651
aF0.0
tp3652
s(g1
((lp3653
g1265
ag2459
ag1980
atp3654
Rp3655
g1
((lp3656
g1976
ag1438
ag1956
ag96
atp3657
Rp3658
tp3659
((lp3660
(g2459
(I1
I3
tp3661
tp3662
aF-48.30555555555556
tp3663
s(g1
((lp3664
(I4
I5
tp3665
a(I6
I3
tp3666
a(I4
I1
tp3667
a(I4
I3
tp3668
a(I5
I3
tp3669
atp3670
Rp3671
g1
((lp3672
(I1
I2
tp3673
a(I0
I3
tp3674
a(I3
I4
tp3675
a(I3
I2
tp3676
a(I1
I4
tp3677
atp3678
Rp3679
tp3680
((lp3681
((I4
I1
tp3682
(I4
I2
tp3683
tp3684
a((I4
I5
tp3685
(I4
I4
tp3686
tp3687
aF-2.1111111111111103
tp3688
s(g1
((lp3689
(I1
I2
tp3690
a(I4
I2
tp3691
a(I4
I1
tp3692
atp3693
Rp3694
g1
((lp3695
(I3
I2
tp3696
a(I3
I4
tp3697
a(I2
I1
tp3698
atp3699
Rp3700
tp3701
((lp3702
((I1
I2
tp3703
(I2
I2
tp3704
tp3705
aF-1049.388888888889
tp3706
s(g1
((lp3707
g102
ag103
ag3024
ag105
atp3708
Rp3709
g1
((lp3710
g3539
ag93
ag861
ag95
ag96
atp3711
Rp3712
tp3713
((lp3714
(g3024
(I2
I5
tp3715
tp3716
aF-96.28
tp3717
s(g1
((lp3718
g102
ag103
ag105
ag868
atp3719
Rp3720
g1
((lp3721
g93
ag861
ag96
ag863
atp3722
Rp3723
tp3724
((lp3725
(g103
g2215
tp3726
a(g103
g2217
tp3727
aF-48.75
tp3728
s(g1
((lp3729
(I1
I2
tp3730
a(I0
I3
tp3731
a(I3
I4
tp3732
a(I1
I4
tp3733
atp3734
Rp3735
g1
((lp3736
(I4
I5
tp3737
a(I6
I3
tp3738
a(I5
I3
tp3739
a(I4
I2
tp3740
atp3741
Rp3742
tp3743
((lp3744
((I3
I4
tp3745
(I4
I5
tp3746
tp3747
aF-48.111111111111114
tp3748
s(g1
((lp3749
(I2
I5
tp3750
a(I3
I4
tp3751
a(I3
I2
tp3752
atp3753
Rp3754
g1
((lp3755
(I4
I5
tp3756
a(I4
I4
tp3757
a(I2
I4
tp3758
atp3759
Rp3760
tp3761
((lp3762
((I2
I5
tp3763
(I3
I5
tp3764
tp3765
a((I3
I4
tp3766
(I3
I3
tp3767
tp3768
aF0.22222222222222232
tp3769
s(g1
((lp3770
(I1
I2
tp3771
a(I0
I3
tp3772
a(I2
I4
tp3773
a(I1
I4
tp3774
a(I2
I1
tp3775
atp3776
Rp3777
g1
((lp3778
(I6
I3
tp3779
a(I4
I1
tp3780
a(I5
I3
tp3781
a(I5
I2
tp3782
a(I4
I5
tp3783
atp3784
Rp3785
tp3786
((lp3787
((I2
I1
tp3788
(I3
I2
tp3789
tp3790
aF-48.75
tp3791
s(g1
((lp3792
g1265
ag2459
ag3374
ag105
atp3793
Rp3794
g1
((lp3795
g1438
ag1976
ag96
ag863
atp3796
Rp3797
tp3798
((lp3799
(g3374
(I3
I3
tp3800
tp3801
aF-50.80555555555556
tp3802
s(g1
((lp3803
g93
ag861
ag96
ag2210
atp3804
Rp3805
g1
((lp3806
g102
ag103
ag105
ag868
atp3807
Rp3808
tp3809
((lp3810
(g861
g873
tp3811
a(g2210
(I4
I3
tp3812
tp3813
aF0.0
tp3814
s(g1
((lp3815
(I4
I2
tp3816
a(I2
I1
tp3817
a(I2
I2
tp3818
atp3819
Rp3820
g1
((lp3821
(I3
I2
tp3822
a(I3
I1
tp3823
a(I3
I4
tp3824
atp3825
Rp3826
tp3827
((lp3828
((I4
I2
tp3829
(I4
I3
tp3830
tp3831
aF-1.3333333333333335
tp3832
s(g1
((lp3833
(I1
I2
tp3834
a(I2
I3
tp3835
a(I5
I3
tp3836
atp3837
Rp3838
g1
((lp3839
(I3
I2
tp3840
a(I4
I1
tp3841
a(I3
I3
tp3842
atp3843
Rp3844
tp3845
((lp3846
((I2
I3
tp3847
(I2
I2
tp3848
tp3849
aF-1051.5555555555557
tp3850
s(g1
((lp3851
(I4
I2
tp3852
a(I4
I3
tp3853
a(I2
I2
tp3854
atp3855
Rp3856
g1
((lp3857
(I3
I2
tp3858
a(I3
I1
tp3859
a(I5
I3
tp3860
atp3861
Rp3862
tp3863
((lp3864
((I4
I2
tp3865
(I5
I2
tp3866
tp3867
aF1.2222222222222223
tp3868
s(g1
((lp3869
(I4
I2
tp3870
a(I1
I3
tp3871
a(I5
I3
tp3872
atp3873
Rp3874
g1
((lp3875
(I4
I5
tp3876
a(I2
I5
tp3877
a(I3
I4
tp3878
atp3879
Rp3880
tp3881
((lp3882
((I5
I3
tp3883
(I5
I4
tp3884
tp3885
aF-1048.111111111111
tp3886
s(g1
((lp3887
g165
ag210
ag166
atp3888
Rp3889
g1
((lp3890
g158
ag1423
ag333
atp3891
Rp3892
tp3893
((lp3894
(g165
(I1
I3
tp3895
tp3896
aF-1049.611111111111
tp3897
s(g1
((lp3898
(I4
I1
tp3899
a(I3
I3
tp3900
a(I2
I1
tp3901
atp3902
Rp3903
g1
((lp3904
(I1
I3
tp3905
a(I5
I2
tp3906
a(I4
I3
tp3907
atp3908
Rp3909
tp3910
((lp3911
((I4
I1
tp3912
(I3
I2
tp3913
tp3914
aF0.2222222222222221
tp3915
s(g1
((lp3916
(I5
I4
tp3917
a(I2
I1
tp3918
a(I4
I3
tp3919
atp3920
Rp3921
g1
((lp3922
(I4
I2
tp3923
a(I2
I3
tp3924
a(I3
I3
tp3925
atp3926
Rp3927
tp3928
((lp3929
((I4
I3
tp3930
(I3
I2
tp3931
tp3932
aF-3.555555555555556
tp3933
s(g1
((lp3934
g101
ag102
ag103
ag105
a(I4
I5
tp3935
atp3936
Rp3937
g1
((lp3938
g93
ag95
ag94
ag96
ag97
atp3939
Rp3940
tp3941
((lp3942
(g3935
g1961
tp3943
aF-48.9
tp3944
s(g1
((lp3945
g1438
ag863
ag96
ag3465
atp3946
Rp3947
g1
((lp3948
g1265
ag105
ag3374
ag2459
atp3949
Rp3950
tp3951
((lp3952
(g3465
(I3
I4
tp3953
tp3954
aF-48.52777777777778
tp3955
s(g1
((lp3956
g27
ag28
ag65
atp3957
Rp3958
g1
((lp3959
g59
ag23
ag61
atp3960
Rp3961
tp3962
((lp3963
(g27
g1502
tp3964
aF-1052.3333333333333
tp3965
s(g1
((lp3966
(I0
I3
tp3967
a(I1
I3
tp3968
a(I2
I4
tp3969
atp3970
Rp3971
g1
((lp3972
(I6
I3
tp3973
a(I5
I4
tp3974
a(I5
I2
tp3975
a(I2
I1
tp3976
atp3977
Rp3978
tp3979
((lp3980
((I1
I3
tp3981
(I6
I3
tp3982
tp3983
aF-47.333333333333336
tp3984
s(g1
((lp3985
(I5
I4
tp3986
a(I5
I2
tp3987
a(I2
I1
tp3988
atp3989
Rp3990
g1
((lp3991
(I6
I3
tp3992
a(I0
I3
tp3993
a(I2
I4
tp3994
atp3995
Rp3996
tp3997
((lp3998
((I5
I4
tp3999
(I4
I3
tp4000
tp4001
aF0.8888888888888893
tp4002
s(g1
((lp4003
(I3
I1
tp4004
a(I3
I4
tp4005
a(I3
I3
tp4006
atp4007
Rp4008
g1
((lp4009
(I4
I1
tp4010
a(I2
I3
tp4011
a(I4
I3
tp4012
atp4013
Rp4014
tp4015
((lp4016
((I3
I4
tp4017
(I3
I5
tp4018
tp4019
a((I3
I4
tp4020
(I2
I4
tp4021
tp4022
a((I3
I3
tp4023
(I3
I2
tp4024
tp4025
a((I3
I1
tp4026
(I3
I2
tp4027
tp4028
aF-1.9999999999999998
tp4029
s(g1
((lp4030
(I2
I3
tp4031
a(I5
I2
tp4032
a(I4
I2
tp4033
atp4034
Rp4035
g1
((lp4036
(I3
I3
tp4037
a(I2
I1
tp4038
a(I3
I5
tp4039
atp4040
Rp4041
tp4042
((lp4043
((I2
I3
tp4044
(I3
I4
tp4045
tp4046
aF0.555555555555556
tp4047
s(g1
((lp4048
(I3
I2
tp4049
a(I3
I4
tp4050
a(I2
I1
tp4051
atp4052
Rp4053
g1
((lp4054
(I4
I2
tp4055
a(I4
I1
tp4056
a(I2
I2
tp4057
atp4058
Rp4059
tp4060
((lp4061
((I2
I1
tp4062
(I3
I1
tp4063
tp4064
a((I3
I2
tp4065
(I3
I3
tp4066
tp4067
aF0.22222222222222232
tp4068
s(g1
((lp4069
(I3
I2
tp4070
a(I3
I1
tp4071
a(I3
I4
tp4072
atp4073
Rp4074
g1
((lp4075
(I4
I2
tp4076
a(I4
I1
tp4077
a(I2
I3
tp4078
atp4079
Rp4080
tp4081
((lp4082
((I3
I2
tp4083
(I3
I3
tp4084
tp4085
aF0.44444444444444464
tp4086
s(g1
((lp4087
(I2
I5
tp4088
a(I3
I1
tp4089
a(I3
I3
tp4090
atp4091
Rp4092
g1
((lp4093
(I3
I2
tp4094
a(I4
I4
tp4095
a(I5
I4
tp4096
atp4097
Rp4098
tp4099
((lp4100
((I3
I3
tp4101
(I4
I3
tp4102
tp4103
aF-2.333333333333333
tp4104
s(g1
((lp4105
(I2
I1
tp4106
a(I4
I3
tp4107
a(I3
I5
tp4108
atp4109
Rp4110
g1
((lp4111
(I4
I2
tp4112
a(I5
I2
tp4113
a(I3
I3
tp4114
atp4115
Rp4116
tp4117
((lp4118
((I3
I5
tp4119
(I3
I4
tp4120
tp4121
aF-1053.5
tp4122
s(g1
((lp4123
(I4
I5
tp4124
ag102
ag105
ag868
atp4125
Rp4126
g1
((lp4127
g96
ag861
ag863
ag862
atp4128
Rp4129
tp4130
((lp4131
(g4124
(I3
I4
tp4132
tp4133
aF-1.75
tp4134
s(g1
((lp4135
(I1
I2
tp4136
a(I0
I3
tp4137
a(I3
I2
tp4138
a(I1
I4
tp4139
a(I2
I4
tp4140
atp4141
Rp4142
g1
((lp4143
(I6
I3
tp4144
a(I4
I5
tp4145
a(I4
I1
tp4146
a(I4
I3
tp4147
a(I5
I3
tp4148
atp4149
Rp4150
tp4151
((lp4152
((I2
I4
tp4153
(I3
I4
tp4154
tp4155
aF-48.92
tp4156
s(g1
((lp4157
g631
ag1497
ag301
atp4158
Rp4159
g1
((lp4160
g305
ag1493
ag627
atp4161
Rp4162
tp4163
((lp4164
(g1497
(I4
I3
tp4165
tp4166
aF-1.3333333333333335
tp4167
s(g1
((lp4168
g22
ag61
ag23
atp4169
Rp4170
g1
((lp4171
g27
ag28
ag65
atp4172
Rp4173
tp4174
((lp4175
(g22
(I2
I5
tp4176
tp4177
aF0.4444444444444442
tp4178
s(g1
((lp4179
(I3
I2
tp4180
a(I3
I4
tp4181
a(I3
I5
tp4182
atp4183
Rp4184
g1
((lp4185
(I4
I5
tp4186
a(I4
I4
tp4187
a(I2
I3
tp4188
atp4189
Rp4190
tp4191
((lp4192
((I3
I4
tp4193
(I3
I3
tp4194
tp4195
aF0.44444444444444464
tp4196
s(g1
((lp4197
g93
ag861
ag863
ag96
atp4198
Rp4199
g1
((lp4200
g4124
ag102
ag105
ag868
atp4201
Rp4202
tp4203
((lp4204
(g93
(I1
I4
tp4205
tp4206
aF-0.5
tp4207
s(g1
((lp4208
(I1
I3
tp4209
a(I2
I4
tp4210
a(I5
I3
tp4211
atp4212
Rp4213
g1
((lp4214
(I3
I2
tp4215
a(I4
I1
tp4216
a(I2
I1
tp4217
atp4218
Rp4219
tp4220
((lp4221
((I1
I3
tp4222
(I1
I2
tp4223
tp4224
aF-1048.111111111111
tp4225
s(g1
((lp4226
(I3
I4
tp4227
a(I4
I1
tp4228
a(I2
I3
tp4229
atp4230
Rp4231
g1
((lp4232
(I5
I2
tp4233
a(I2
I1
tp4234
a(I2
I2
tp4235
atp4236
Rp4237
tp4238
((lp4239
((I2
I3
tp4240
(I3
I3
tp4241
tp4242
a((I2
I3
tp4243
(I3
I2
tp4244
tp4245
aF1.3333333333333335
tp4246
s(g1
((lp4247
(I2
I3
tp4248
a(I2
I1
tp4249
a(I4
I3
tp4250
atp4251
Rp4252
g1
((lp4253
(I3
I0
tp4254
a(I3
I2
tp4255
a(I1
I4
tp4256
atp4257
Rp4258
tp4259
((lp4260
((I2
I1
tp4261
(I2
I2
tp4262
tp4263
aF0.0
tp4264
s(g1
((lp4265
(I1
I2
tp4266
a(I2
I5
tp4267
a(I1
I4
tp4268
a(I0
I3
tp4269
a(I2
I1
tp4270
atp4271
Rp4272
g1
((lp4273
(I4
I5
tp4274
a(I6
I3
tp4275
a(I5
I4
tp4276
a(I4
I1
tp4277
a(I5
I2
tp4278
atp4279
Rp4280
tp4281
((lp4282
((I2
I5
tp4283
(I2
I4
tp4284
tp4285
a((I2
I1
tp4286
(I2
I2
tp4287
tp4288
aF-1.5
tp4289
s(g1
((lp4290
(I5
I4
tp4291
a(I4
I4
tp4292
a(I3
I3
tp4293
atp4294
Rp4295
g1
((lp4296
(I2
I5
tp4297
a(I3
I2
tp4298
a(I4
I3
tp4299
atp4300
Rp4301
tp4302
((lp4303
((I5
I4
tp4304
(I4
I5
tp4305
tp4306
aF-1047.7222222222224
tp4307
s(g1
((lp4308
(I4
I2
tp4309
a(I4
I1
tp4310
a(I3
I3
tp4311
atp4312
Rp4313
g1
((lp4314
(I5
I4
tp4315
a(I3
I4
tp4316
a(I2
I1
tp4317
atp4318
Rp4319
tp4320
((lp4321
((I4
I1
tp4322
(I3
I2
tp4323
tp4324
a((I4
I2
tp4325
(I3
I2
tp4326
tp4327
aF1.1111111111111107
tp4328
s(g1
((lp4329
g163
ag164
ag608
ag165
atp4330
Rp4331
g1
((lp4332
g156
ag159
ag158
ag157
a(I2
I2
tp4333
atp4334
Rp4335
tp4336
((lp4337
(g608
(I2
I2
tp4338
tp4339
aF-49.27777777777778
tp4340
s(g1
((lp4341
(I2
I1
tp4342
a(I4
I3
tp4343
a(I2
I2
tp4344
atp4345
Rp4346
g1
((lp4347
(I3
I1
tp4348
a(I3
I4
tp4349
a(I3
I3
tp4350
atp4351
Rp4352
tp4353
((lp4354
((I2
I2
tp4355
(I2
I3
tp4356
tp4357
aF-3.333333333333333
tp4358
s(g1
((lp4359
(I4
I1
tp4360
a(I3
I4
tp4361
a(I1
I4
tp4362
atp4363
Rp4364
g1
((lp4365
(I3
I2
tp4366
a(I3
I3
tp4367
a(I2
I2
tp4368
atp4369
Rp4370
tp4371
((lp4372
((I3
I4
tp4373
(I2
I3
tp4374
tp4375
aF-1050.5555555555557
tp4376
s(g1
((lp4377
(I6
I3
tp4378
a(I5
I2
tp4379
a(I3
I2
tp4380
a(I3
I4
tp4381
a(I5
I4
tp4382
atp4383
Rp4384
g1
((lp4385
(I0
I3
tp4386
a(I1
I3
tp4387
a(I2
I3
tp4388
a(I2
I4
tp4389
a(I2
I1
tp4390
atp4391
Rp4392
tp4393
((lp4394
((I3
I4
tp4395
(I2
I4
tp4396
tp4397
aF-1.6666666666666665
tp4398
s(g1
((lp4399
(I2
I5
tp4400
a(I3
I1
tp4401
a(I3
I3
tp4402
atp4403
Rp4404
g1
((lp4405
(I5
I4
tp4406
a(I2
I3
tp4407
a(I4
I3
tp4408
atp4409
Rp4410
tp4411
((lp4412
((I3
I3
tp4413
(I3
I4
tp4414
tp4415
aF0.555555555555556
tp4416
s(g1
((lp4417
(I2
I3
tp4418
a(I5
I2
tp4419
a(I4
I3
tp4420
atp4421
Rp4422
g1
((lp4423
(I3
I2
tp4424
a(I2
I1
tp4425
a(I3
I5
tp4426
atp4427
Rp4428
tp4429
((lp4430
((I4
I3
tp4431
(I4
I2
tp4432
tp4433
aF-1048.5
tp4434
s(g1
((lp4435
(I6
I3
tp4436
a(I4
I1
tp4437
a(I5
I3
tp4438
a(I5
I2
tp4439
a(I4
I5
tp4440
atp4441
Rp4442
g1
((lp4443
(I1
I2
tp4444
a(I0
I3
tp4445
a(I3
I2
tp4446
a(I1
I4
tp4447
a(I2
I4
tp4448
atp4449
Rp4450
tp4451
((lp4452
((I5
I2
tp4453
(I4
I3
tp4454
tp4455
aF-48.97222222222222
tp4456
s(g1
((lp4457
(I3
I2
tp4458
a(I4
I1
tp4459
a(I5
I3
tp4460
atp4461
Rp4462
g1
((lp4463
(I4
I2
tp4464
a(I4
I3
tp4465
a(I2
I2
tp4466
atp4467
Rp4468
tp4469
((lp4470
((I4
I1
tp4471
(I3
I1
tp4472
tp4473
aF-1050.888888888889
tp4474
s(g1
((lp4475
(I5
I4
tp4476
a(I4
I4
tp4477
a(I1
I4
tp4478
atp4479
Rp4480
g1
((lp4481
(I2
I5
tp4482
a(I3
I2
tp4483
a(I4
I3
tp4484
atp4485
Rp4486
tp4487
((lp4488
((I5
I4
tp4489
(I4
I5
tp4490
tp4491
aF-1047.2777777777776
tp4492
s(g1
((lp4493
(I5
I4
tp4494
a(I3
I1
tp4495
a(I3
I2
tp4496
atp4497
Rp4498
g1
((lp4499
(I4
I2
tp4500
a(I4
I3
tp4501
a(I2
I2
tp4502
atp4503
Rp4504
tp4505
((lp4506
((I5
I4
tp4507
(I5
I3
tp4508
tp4509
aF-1.5555555555555556
tp4510
s(g1
((lp4511
(I1
I3
tp4512
a(I5
I2
tp4513
a(I4
I3
tp4514
atp4515
Rp4516
g1
((lp4517
(I3
I2
tp4518
a(I3
I3
tp4519
a(I2
I1
tp4520
atp4521
Rp4522
tp4523
((lp4524
((I4
I3
tp4525
(I4
I2
tp4526
tp4527
aF-1051.5555555555557
tp4528
s(g1
((lp4529
g1956
ag96
ag1768
atp4530
Rp4531
g1
((lp4532
g413
ag1952
ag1772
atp4533
Rp4534
tp4535
((lp4536
(g1956
(I4
I3
tp4537
tp4538
aF-1049.5
tp4539
s(g1
((lp4540
(I5
I2
tp4541
a(I2
I1
tp4542
a(I4
I3
tp4543
atp4544
Rp4545
g1
((lp4546
(I0
I3
tp4547
a(I2
I4
tp4548
a(I5
I3
tp4549
atp4550
Rp4551
tp4552
((lp4553
((I5
I2
tp4554
(I4
I2
tp4555
tp4556
a((I4
I3
tp4557
(I3
I2
tp4558
tp4559
aF1.6666666666666663
tp4560
s(g1
((lp4561
(I5
I2
tp4562
a(I2
I1
tp4563
a(I2
I2
tp4564
atp4565
Rp4566
g1
((lp4567
(I4
I1
tp4568
a(I3
I2
tp4569
a(I3
I4
tp4570
atp4571
Rp4572
tp4573
((lp4574
((I5
I2
tp4575
(I4
I2
tp4576
tp4577
aF-1049.388888888889
tp4578
s(g1
((lp4579
(I3
I2
tp4580
a(I3
I1
tp4581
a(I3
I4
tp4582
atp4583
Rp4584
g1
((lp4585
(I2
I1
tp4586
a(I4
I3
tp4587
a(I2
I2
tp4588
atp4589
Rp4590
tp4591
((lp4592
((I3
I2
tp4593
(I3
I3
tp4594
tp4595
aF0.44444444444444464
tp4596
s(g1
((lp4597
(I5
I3
tp4598
a(I3
I4
tp4599
a(I3
I5
tp4600
atp4601
Rp4602
g1
((lp4603
(I5
I4
tp4604
a(I2
I4
tp4605
a(I4
I3
tp4606
atp4607
Rp4608
tp4609
((lp4610
((I3
I5
tp4611
(I4
I5
tp4612
tp4613
aF-1.3333333333333333
tp4614
s(g1
((lp4615
g158
ag1423
ag333
atp4616
Rp4617
g1
((lp4618
g2309
ag166
ag210
atp4619
Rp4620
tp4621
((lp4622
(g158
(I4
I5
tp4623
tp4624
a(g333
(I3
I6
tp4625
tp4626
a(g333
g3632
tp4627
aF1.4444444444444442
tp4628
s(g1
((lp4629
(I3
I1
tp4630
a(I3
I3
tp4631
a(I3
I5
tp4632
atp4633
Rp4634
g1
((lp4635
(I2
I3
tp4636
a(I4
I3
tp4637
a(I2
I2
tp4638
atp4639
Rp4640
tp4641
((lp4642
((I3
I1
tp4643
(I4
I1
tp4644
tp4645
aF-0.7777777777777777
tp4646
s.