(lp0
(c__builtin__
frozenset
p1
((lp2
(I1
I3
tp3
a(I3
I1
tp4
a(I1
I5
tp5
a(I2
I6
tp6
a(I0
I4
tp7
a(I2
I2
tp8
a(I3
I7
tp9
atp10
Rp11
g1
((lp12
(I7
I3
tp13
a(I7
I5
tp14
a(I4
I6
tp15
a(I6
I6
tp16
a(I6
I2
tp17
a(I5
I1
tp18
a(I8
I4
tp19
atp20
Rp21
tp22
a(g1
((lp23
g13
ag14
ag15
ag16
ag17
ag18
ag19
atp24
Rp25
g1
((lp26
g3
ag4
ag5
ag7
ag8
ag9
a(I2
I5
tp27
atp28
Rp29
tp30
a(g1
((lp31
g3
ag4
ag8
ag5
ag7
ag9
ag27
atp32
Rp33
g1
((lp34
g13
ag15
ag16
a(I7
I4
tp35
ag14
ag17
ag18
atp36
Rp37
tp38
a(g1
((lp39
g13
ag15
ag16
ag35
ag14
ag17
ag18
atp40
Rp41
g1
((lp42
g4
ag5
ag7
ag8
ag9
ag27
a(I2
I4
tp43
atp44
Rp45
tp46
a(g1
((lp47
g4
ag8
ag5
ag7
ag27
ag43
atp48
Rp49
g1
((lp50
g13
ag16
ag35
ag14
a(I3
I7
tp51
ag17
ag18
atp52
Rp53
tp54
a(g1
((lp55
g13
ag14
ag16
ag17
ag18
ag51
atp56
Rp57
g1
((lp58
g4
ag8
a(I7
I4
tp59
ag5
ag7
ag27
atp60
Rp61
tp62
a(g1
((lp63
g4
ag8
ag59
ag5
ag7
ag27
atp64
Rp65
g1
((lp66
g13
a(I6
I4
tp67
ag16
ag17
ag51
ag18
atp68
Rp69
tp70
a(g1
((lp71
g13
ag67
ag16
ag17
ag51
ag18
atp72
Rp73
g1
((lp74
g4
ag8
ag59
ag5
ag7
a(I2
I4
tp75
atp76
Rp77
tp78
a(g1
((lp79
g4
ag8
ag59
ag5
ag7
ag75
atp80
Rp81
g1
((lp82
g13
a(I5
I5
tp83
ag16
ag17
ag51
ag18
atp84
Rp85
tp86
a(g1
((lp87
g13
ag83
ag16
ag17
ag51
ag18
atp88
Rp89
g1
((lp90
g7
ag59
ag5
ag8
a(I4
I2
tp91
ag75
atp92
Rp93
tp94
a(g1
((lp95
g3
ag4
ag5
ag6
ag7
ag8
ag9
atp96
Rp97
g1
((lp98
g13
ag16
a(I5
I6
tp99
ag14
ag17
ag18
ag19
atp100
Rp101
tp102
a(g1
((lp103
g13
ag16
ag99
ag14
ag17
ag18
ag19
atp104
Rp105
g1
((lp106
g6
ag4
ag5
ag7
ag8
ag9
a(I2
I4
tp107
atp108
Rp109
tp110
a(g1
((lp111
g6
ag4
ag5
ag7
ag8
ag9
ag107
atp112
Rp113
g1
((lp114
g13
ag14
a(I5
I5
tp115
ag16
ag17
ag18
ag19
atp116
Rp117
tp118
a(g1
((lp119
g13
ag14
ag115
ag16
ag17
ag18
ag19
atp120
Rp121
g1
((lp122
g4
ag5
ag7
ag8
ag9
a(I2
I5
tp123
ag107
atp124
Rp125
tp126
a(g1
((lp127
g4
ag5
ag7
ag8
ag9
ag107
atp128
Rp129
g1
((lp130
g13
ag14
ag16
ag17
ag18
a(I2
I5
tp131
ag19
atp132
Rp133
tp134
a(g1
((lp135
g13
ag14
ag16
ag17
ag18
ag19
atp136
Rp137
g1
((lp138
g4
ag5
ag7
ag8
ag9
a(I2
I5
tp139
atp140
Rp141
tp142
a(g1
((lp143
g4
ag5
ag7
ag8
ag9
ag139
atp144
Rp145
g1
((lp146
g13
a(I6
I4
tp147
ag16
ag17
ag18
ag19
atp148
Rp149
tp150
a(g1
((lp151
g13
ag147
ag16
ag17
ag18
ag19
atp152
Rp153
g1
((lp154
(I3
I2
tp155
ag7
ag5
ag8
ag9
ag139
atp156
Rp157
tp158
a(g1
((lp159
g155
ag7
ag5
ag8
ag9
ag139
atp160
Rp161
g1
((lp162
g13
ag147
ag16
ag18
a(I5
I3
tp163
ag19
atp164
Rp165
tp166
a(g1
((lp167
g13
ag147
ag16
ag18
ag163
ag19
atp168
Rp169
g1
((lp170
g155
a(I2
I6
tp171
ag7
ag5
ag8
ag139
atp172
Rp173
tp174
a(g1
((lp175
g3
ag4
ag5
ag6
ag7
ag8
ag9
atp176
Rp177
g1
((lp178
g13
ag14
ag16
a(I5
I7
tp179
ag17
a(I4
I2
tp180
ag19
atp181
Rp182
tp183
a(g1
((lp184
g13
ag14
ag16
ag179
ag17
ag180
ag19
atp185
Rp186
g1
((lp187
g3
a(I3
I3
tp188
ag4
ag5
ag6
ag7
ag9
atp189
Rp190
tp191
a(g1
((lp192
g3
ag188
ag5
ag6
ag7
ag9
atp193
Rp194
g1
((lp195
g13
ag14
ag179
ag16
a(I3
I1
tp196
ag17
ag19
atp197
Rp198
tp199
a(g1
((lp200
g14
ag196
ag16
ag179
ag17
ag19
atp201
Rp202
g1
((lp203
(I7
I3
tp204
ag3
ag5
ag6
ag7
ag9
atp205
Rp206
tp207
a(g1
((lp208
g204
ag3
ag5
ag6
ag7
ag9
atp209
Rp210
g1
((lp211
g14
ag16
ag179
ag17
a(I4
I2
tp212
ag19
atp213
Rp214
tp215
a(g1
((lp216
g14
ag16
ag179
ag17
ag212
ag19
atp217
Rp218
g1
((lp219
g204
ag6
ag5
ag7
ag9
a(I2
I4
tp220
atp221
Rp222
tp223
a(g1
((lp224
g204
ag6
ag5
ag7
ag9
ag220
atp225
Rp226
g1
((lp227
g14
ag16
ag179
ag17
ag19
a(I5
I3
tp228
atp229
Rp230
tp231
a(g1
((lp232
g14
ag16
ag179
ag17
ag19
ag228
atp233
Rp234
g1
((lp235
g204
ag5
ag7
ag9
a(I2
I5
tp236
ag220
atp237
Rp238
tp239
a(g1
((lp240
g204
ag5
ag7
ag9
ag236
ag220
atp241
Rp242
g1
((lp243
g16
ag179
a(I6
I3
tp244
ag14
ag228
ag19
atp245
Rp246
tp247
a(g1
((lp248
g16
ag179
ag244
ag14
ag228
ag19
atp249
Rp250
g1
((lp251
(I6
I4
tp252
ag5
ag7
ag9
ag236
ag220
atp253
Rp254
tp255
a(g1
((lp256
g3
ag4
ag5
ag6
ag7
ag8
ag9
atp257
Rp258
g1
((lp259
g13
ag16
a(I6
I4
tp260
ag179
ag17
ag18
ag19
atp261
Rp262
tp263
a(g1
((lp264
g13
ag16
ag260
ag179
ag17
ag18
ag19
atp265
Rp266
g1
((lp267
g3
ag4
ag5
ag6
a(I3
I6
tp268
ag8
ag7
atp269
Rp270
tp271
a(g1
((lp272
g3
ag4
ag5
ag6
ag268
ag8
ag7
atp273
Rp274
g1
((lp275
g13
a(I7
I5
tp276
ag260
ag179
ag17
ag18
ag19
atp277
Rp278
tp279
a(g1
((lp280
g13
ag276
ag260
ag179
ag17
ag18
ag19
atp281
Rp282
g1
((lp283
g3
ag4
ag8
ag5
ag6
ag7
a(I3
I5
tp284
atp285
Rp286
tp287
a(g1
((lp288
g3
ag4
ag8
ag5
ag6
ag7
ag284
atp289
Rp290
g1
((lp291
g13
ag260
ag179
ag276
ag18
a(I5
I3
tp292
ag19
atp293
Rp294
tp295
a(g1
((lp296
g13
ag260
ag179
ag276
ag18
ag19
ag292
atp297
Rp298
g1
((lp299
g6
ag4
ag8
a(I1
I4
tp300
ag5
ag7
ag284
atp301
Rp302
tp303
a(g1
((lp304
g6
ag4
ag8
ag5
ag7
ag284
atp305
Rp306
g1
((lp307
g13
ag179
a(I1
I4
tp308
ag276
ag18
ag292
ag19
atp309
Rp310
tp311
a(g1
((lp312
g13
ag179
ag308
ag276
ag18
ag19
atp313
Rp314
g1
((lp315
g6
ag4
ag8
ag5
ag7
a(I5
I3
tp316
atp317
Rp318
tp319
a(g1
((lp320
g6
ag4
ag8
ag5
ag7
ag316
atp321
Rp322
g1
((lp323
g13
ag179
ag308
a(I7
I4
tp324
ag18
ag19
atp325
Rp326
tp327
a(g1
((lp328
g13
ag179
ag308
ag324
ag18
ag19
atp329
Rp330
g1
((lp331
g6
a(I3
I3
tp332
ag4
ag5
ag7
ag316
atp333
Rp334
tp335
a(g1
((lp336
g3
ag4
ag5
ag6
ag7
ag8
ag9
atp337
Rp338
g1
((lp339
g13
ag14
ag16
ag179
ag17
a(I4
I2
tp340
ag19
atp341
Rp342
tp343
a(g1
((lp344
g13
ag14
ag16
ag179
ag17
ag340
ag19
atp345
Rp346
g1
((lp347
g3
ag4
ag5
ag6
a(I2
I3
tp348
ag7
ag9
atp349
Rp350
tp351
a(g1
((lp352
g3
ag5
ag6
ag348
ag7
ag9
atp353
Rp354
g1
((lp355
g13
ag14
ag179
ag16
a(I3
I1
tp356
ag17
ag19
atp357
Rp358
tp359
a(g1
((lp360
g14
ag356
ag16
ag179
ag17
ag19
atp361
Rp362
g1
((lp363
(I7
I3
tp364
ag3
ag5
ag6
ag7
ag9
atp365
Rp366
tp367
a(g1
((lp368
g364
ag3
ag5
ag6
ag7
ag9
atp369
Rp370
g1
((lp371
g14
ag16
ag179
ag17
a(I4
I2
tp372
ag19
atp373
Rp374
tp375
a(g1
((lp376
g14
ag16
ag179
ag17
ag372
ag19
atp377
Rp378
g1
((lp379
(I6
I4
tp380
ag3
ag5
ag6
ag7
ag9
atp381
Rp382
tp383
a(g1
((lp384
g380
ag3
ag5
ag6
ag7
ag9
atp385
Rp386
g1
((lp387
g16
ag179
ag14
ag372
a(I5
I3
tp388
ag19
atp389
Rp390
tp391
a(g1
((lp392
g16
ag179
ag14
ag372
ag388
ag19
atp393
Rp394
g1
((lp395
g380
ag6
ag5
ag7
ag9
a(I2
I4
tp396
atp397
Rp398
tp399
a(g1
((lp400
g5
ag6
ag9
ag396
ag7
atp401
Rp402
g1
((lp403
(I6
I4
tp404
ag16
ag179
ag14
ag372
ag19
atp405
Rp406
tp407
a(g1
((lp408
g16
ag372
ag14
ag179
ag19
atp409
Rp410
g1
((lp411
g5
a(I6
I4
tp412
ag6
ag7
ag9
atp413
Rp414
tp415
a(g1
((lp416
(I1
I3
tp417
a(I3
I1
tp418
a(I1
I5
tp419
a(I2
I6
tp420
a(I0
I4
tp421
a(I2
I2
tp422
a(I3
I7
tp423
atp424
Rp425
g1
((lp426
(I7
I3
tp427
a(I7
I5
tp428
a(I6
I6
tp429
a(I5
I7
tp430
a(I6
I2
tp431
a(I4
I2
tp432
a(I8
I4
tp433
atp434
Rp435
tp436
a(g1
((lp437
g427
ag428
ag429
ag430
ag431
ag432
ag433
atp438
Rp439
g1
((lp440
g417
ag418
ag419
ag420
a(I3
I6
tp441
ag422
ag421
atp442
Rp443
tp444
a(g1
((lp445
g417
ag418
ag419
ag420
ag441
ag422
ag421
atp446
Rp447
g1
((lp448
(I6
I4
tp449
ag428
ag429
ag430
ag431
ag432
ag433
atp450
Rp451
tp452
a(g1
((lp453
g449
ag428
ag429
ag430
ag431
ag432
ag433
atp454
Rp455
g1
((lp456
g417
a(I3
I3
tp457
ag418
ag419
ag420
ag441
ag421
atp458
Rp459
tp460
a(g1
((lp461
g417
ag457
ag419
ag420
ag441
ag421
atp462
Rp463
g1
((lp464
g449
ag428
ag430
ag429
a(I3
I1
tp465
ag431
ag433
atp466
Rp467
tp468
a(g1
((lp469
g449
ag428
ag429
ag430
ag431
ag433
atp470
Rp471
g1
((lp472
g420
ag457
a(I3
I1
tp473
ag419
ag441
ag421
atp474
Rp475
tp476
a(g1
((lp477
g420
ag457
ag473
ag419
ag441
ag421
atp478
Rp479
g1
((lp480
g449
ag428
ag430
ag431
a(I6
I5
tp481
ag433
atp482
Rp483
tp484
a(g1
((lp485
g449
ag428
ag430
ag431
ag481
ag433
atp486
Rp487
g1
((lp488
g457
ag473
ag419
ag441
ag421
a(I3
I5
tp489
atp490
Rp491
tp492
a(g1
((lp493
g419
ag473
ag457
ag441
ag421
atp494
Rp495
g1
((lp496
g449
ag428
ag430
ag431
a(I3
I5
tp497
ag433
atp498
Rp499
tp500
a(g1
((lp501
g433
ag449
ag428
ag431
ag430
atp502
Rp503
g1
((lp504
g419
ag473
ag421
ag441
a(I3
I5
tp505
atp506
Rp507
tp508
a(g1
((lp509
g417
ag418
ag419
ag420
ag421
ag422
ag423
atp510
Rp511
g1
((lp512
g427
ag428
ag429
ag430
ag431
a(I5
I2
tp513
ag433
atp514
Rp515
tp516
a(g1
((lp517
g427
ag428
ag429
ag430
ag431
ag513
ag433
atp518
Rp519
g1
((lp520
g417
ag418
ag420
ag421
ag422
ag423
a(I2
I4
tp521
atp522
Rp523
tp524
a(g1
((lp525
g417
ag418
ag420
ag421
ag422
ag423
ag521
atp526
Rp527
g1
((lp528
g427
ag428
ag429
ag430
ag431
a(I5
I3
tp529
ag433
atp530
Rp531
tp532
a(g1
((lp533
g427
ag428
ag429
ag430
ag431
ag433
ag529
atp534
Rp535
g1
((lp536
g417
ag418
ag420
a(I2
I3
tp537
ag421
ag423
ag521
atp538
Rp539
tp540
a(g1
((lp541
g417
ag418
ag420
ag421
ag423
ag521
atp542
Rp543
g1
((lp544
g427
ag428
ag429
ag430
ag431
a(I2
I3
tp545
ag433
atp546
Rp547
tp548
a(g1
((lp549
g427
ag428
ag429
ag430
ag431
ag433
atp550
Rp551
g1
((lp552
g417
ag418
ag420
a(I2
I3
tp553
ag421
ag423
atp554
Rp555
tp556
a(g1
((lp557
g417
ag418
ag420
ag553
ag421
ag423
atp558
Rp559
g1
((lp560
(I6
I4
tp561
ag428
ag429
ag430
ag431
ag433
atp562
Rp563
tp564
a(g1
((lp565
g561
ag428
ag429
ag430
ag431
ag433
atp566
Rp567
g1
((lp568
g417
ag418
ag420
ag553
a(I3
I6
tp569
ag421
atp570
Rp571
tp572
a(g1
((lp573
g417
ag418
ag420
ag553
ag569
ag421
atp574
Rp575
g1
((lp576
g561
ag428
a(I5
I5
tp577
ag430
ag431
ag433
atp578
Rp579
tp580
a(g1
((lp581
g561
ag428
ag577
ag430
ag431
ag433
atp582
Rp583
g1
((lp584
g417
ag421
ag420
ag553
ag569
a(I2
I2
tp585
atp586
Rp587
tp588
a(g1
((lp589
(I2
I6
tp590
a(I3
I7
tp591
a(I3
I1
tp592
a(I1
I5
tp593
a(I1
I3
tp594
a(I2
I2
tp595
a(I0
I4
tp596
atp597
Rp598
g1
((lp599
(I7
I3
tp600
a(I6
I6
tp601
a(I6
I4
tp602
a(I5
I7
tp603
a(I6
I2
tp604
a(I5
I1
tp605
a(I8
I4
tp606
atp607
Rp608
tp609
a(g1
((lp610
g600
ag601
ag602
ag603
ag604
ag605
ag606
atp611
Rp612
g1
((lp613
g590
ag592
ag593
ag594
a(I3
I6
tp614
ag595
ag596
atp615
Rp616
tp617
a(g1
((lp618
g590
ag592
ag593
ag594
ag614
ag595
ag596
atp619
Rp620
g1
((lp621
g600
a(I5
I5
tp622
ag602
ag603
ag604
ag605
ag606
atp623
Rp624
tp625
a(g1
((lp626
g600
ag622
ag602
ag603
ag604
ag605
ag606
atp627
Rp628
g1
((lp629
g590
ag592
ag595
ag593
ag594
ag596
a(I3
I5
tp630
atp631
Rp632
tp633
a(g1
((lp634
g590
ag592
ag595
ag593
ag594
ag596
ag630
atp635
Rp636
g1
((lp637
g600
ag622
ag602
a(I6
I6
tp638
ag604
ag605
ag606
atp639
Rp640
tp641
a(g1
((lp642
g600
ag622
ag602
ag638
ag604
ag605
ag606
atp643
Rp644
g1
((lp645
g590
ag592
ag595
ag593
ag596
a(I2
I4
tp646
ag630
atp647
Rp648
tp649
a(g1
((lp650
g590
ag592
ag595
ag593
ag596
ag630
atp651
Rp652
g1
((lp653
g600
ag622
ag638
ag604
ag605
a(I2
I4
tp654
ag606
atp655
Rp656
tp657
a(g1
((lp658
g600
ag638
ag604
ag605
ag654
ag606
atp659
Rp660
g1
((lp661
g590
a(I5
I5
tp662
ag592
ag595
ag593
ag596
atp663
Rp664
tp665
a(g1
((lp666
g596
ag590
ag592
ag662
ag595
atp667
Rp668
g1
((lp669
g600
ag638
a(I1
I5
tp670
ag604
ag605
ag606
atp671
Rp672
tp673
a(g1
((lp674
g605
ag604
ag600
ag670
ag606
atp675
Rp676
g1
((lp677
g596
ag590
ag592
ag595
a(I6
I6
tp678
atp679
Rp680
tp681
a(g1
((lp682
g590
ag591
ag592
ag593
ag594
ag595
ag596
atp683
Rp684
g1
((lp685
g600
a(I7
I5
tp686
a(I4
I6
tp687
ag601
ag604
ag605
ag606
atp688
Rp689
tp690
a(g1
((lp691
g600
ag686
ag687
ag601
ag604
ag605
ag606
atp692
Rp693
g1
((lp694
g594
ag592
ag593
ag596
ag595
ag591
a(I3
I5
tp695
atp696
Rp697
tp698
a(g1
((lp699
g594
ag592
ag595
ag593
ag596
ag695
atp700
Rp701
g1
((lp702
g600
ag686
ag601
ag604
ag605
a(I3
I7
tp703
ag606
atp704
Rp705
tp706
a(g1
((lp707
g600
ag601
ag604
ag703
ag605
ag606
atp708
Rp709
g1
((lp710
g594
ag592
ag595
ag593
a(I7
I5
tp711
ag596
atp712
Rp713
tp714
a(g1
((lp715
g594
ag592
ag595
ag593
ag711
ag596
atp716
Rp717
g1
((lp718
g600
a(I4
I6
tp719
ag601
ag604
ag605
ag606
atp720
Rp721
tp722
a(g1
((lp723
g600
ag719
ag601
ag604
ag605
ag606
atp724
Rp725
g1
((lp726
g594
ag596
ag593
ag711
ag595
a(I4
I2
tp727
atp728
Rp729
tp730
a(g1
((lp731
g594
ag596
ag593
ag711
ag595
ag727
atp732
Rp733
g1
((lp734
(I6
I4
tp735
ag719
ag601
ag604
ag605
ag606
atp736
Rp737
tp738
a(g1
((lp739
g735
ag719
ag601
ag604
ag605
ag606
atp740
Rp741
g1
((lp742
g594
ag596
a(I7
I4
tp743
ag593
ag595
ag727
atp744
Rp745
tp746
a(g1
((lp747
g594
ag596
ag743
ag593
ag595
ag727
atp748
Rp749
g1
((lp750
g735
ag719
ag601
ag605
ag606
a(I5
I3
tp751
atp752
Rp753
tp754
a(g1
((lp755
g735
ag719
ag601
ag605
ag606
ag751
atp756
Rp757
g1
((lp758
g596
ag743
ag593
ag595
ag727
a(I2
I4
tp759
atp760
Rp761
tp762
a(g1
((lp763
g590
ag591
ag592
ag593
ag594
ag595
ag596
atp764
Rp765
g1
((lp766
g600
ag601
a(I5
I6
tp767
ag686
ag604
ag605
ag606
atp768
Rp769
tp770
a(g1
((lp771
g600
ag601
ag767
ag686
ag604
ag605
ag606
atp772
Rp773
g1
((lp774
g590
ag592
ag593
ag596
ag595
ag591
a(I2
I4
tp775
atp776
Rp777
tp778
a(g1
((lp779
g590
ag592
ag593
ag596
ag595
ag591
ag775
atp780
Rp781
g1
((lp782
g600
ag686
a(I5
I5
tp783
ag601
ag604
ag605
ag606
atp784
Rp785
tp786
a(g1
((lp787
g600
ag686
ag783
ag601
ag604
ag605
ag606
atp788
Rp789
g1
((lp790
g592
ag593
ag596
ag595
ag591
a(I2
I5
tp791
ag775
atp792
Rp793
tp794
a(g1
((lp795
g592
ag593
ag596
ag595
ag591
ag775
atp796
Rp797
g1
((lp798
g600
ag686
ag601
ag604
ag605
a(I2
I5
tp799
ag606
atp800
Rp801
tp802
a(g1
((lp803
g600
ag686
ag601
ag604
ag605
ag606
atp804
Rp805
g1
((lp806
g592
ag593
ag596
ag595
ag591
a(I2
I5
tp807
atp808
Rp809
tp810
a(g1
((lp811
g592
ag593
ag596
ag595
ag591
ag807
atp812
Rp813
g1
((lp814
g600
ag601
ag604
ag605
a(I6
I4
tp815
ag606
atp816
Rp817
tp818
a(g1
((lp819
g600
ag601
ag604
ag605
ag815
ag606
atp820
Rp821
g1
((lp822
(I3
I2
tp823
ag596
ag593
ag595
ag591
ag807
atp824
Rp825
tp826
a(g1
((lp827
g823
ag596
ag593
ag595
ag591
ag807
atp828
Rp829
g1
((lp830
g600
ag601
ag605
ag815
ag606
a(I5
I3
tp831
atp832
Rp833
tp834
a(g1
((lp835
g600
ag601
ag605
ag815
ag606
ag831
atp836
Rp837
g1
((lp838
g823
a(I2
I6
tp839
ag596
ag593
ag595
ag807
atp840
Rp841
tp842
a(g1
((lp843
(I1
I3
tp844
a(I3
I1
tp845
a(I1
I5
tp846
a(I2
I6
tp847
a(I0
I4
tp848
a(I2
I2
tp849
a(I3
I7
tp850
atp851
Rp852
g1
((lp853
(I7
I3
tp854
a(I7
I5
tp855
a(I4
I6
tp856
a(I6
I6
tp857
a(I6
I2
tp858
a(I5
I1
tp859
a(I8
I4
tp860
atp861
Rp862
tp863
a(g1
((lp864
g854
ag855
ag856
ag857
ag858
ag859
ag860
atp865
Rp866
g1
((lp867
g844
ag845
ag846
ag848
ag849
ag850
a(I2
I5
tp868
atp869
Rp870
tp871
a(g1
((lp872
g844
ag845
ag849
ag846
ag848
ag850
ag868
atp873
Rp874
g1
((lp875
g854
ag855
a(I5
I5
tp876
ag857
ag858
ag859
ag860
atp877
Rp878
tp879
a(g1
((lp880
g854
ag855
ag857
ag858
ag859
ag860
atp881
Rp882
g1
((lp883
g844
a(I5
I5
tp884
ag845
ag849
ag846
ag848
ag850
atp885
Rp886
tp887
a(g1
((lp888
g844
ag884
ag845
ag849
ag846
ag848
ag850
atp889
Rp890
g1
((lp891
g854
a(I6
I4
tp892
ag857
ag858
ag859
ag860
atp893
Rp894
tp895
a(g1
((lp896
g860
ag859
ag858
ag857
ag854
atp897
Rp898
g1
((lp899
(I6
I4
tp900
ag844
ag845
ag849
ag846
ag848
ag850
atp901
Rp902
tp903
a(g1
((lp904
g900
ag844
ag845
ag849
ag846
ag848
ag850
atp905
Rp906
g1
((lp907
(I6
I3
tp908
ag859
ag858
ag860
ag857
atp909
Rp910
tp911
a(g1
((lp912
g908
ag859
ag858
ag857
ag860
atp913
Rp914
g1
((lp915
g844
ag845
ag846
ag848
ag849
ag850
a(I5
I3
tp916
atp917
Rp918
tp919
a(g1
((lp920
g844
ag845
ag846
ag848
ag849
ag850
ag916
atp921
Rp922
g1
((lp923
g908
a(I4
I2
tp924
ag858
ag860
ag857
atp925
Rp926
tp927
a(g1
((lp928
g924
ag858
ag857
ag860
atp929
Rp930
g1
((lp931
g844
ag845
ag849
a(I6
I3
tp932
ag846
ag848
ag850
atp933
Rp934
tp935
a(g1
((lp936
(I1
I3
tp937
a(I3
I1
tp938
a(I1
I5
tp939
a(I2
I6
tp940
a(I0
I4
tp941
a(I2
I2
tp942
a(I3
I7
tp943
atp944
Rp945
g1
((lp946
(I7
I3
tp947
a(I6
I6
tp948
a(I5
I6
tp949
a(I7
I5
tp950
a(I6
I2
tp951
a(I5
I1
tp952
a(I8
I4
tp953
atp954
Rp955
tp956
a(g1
((lp957
g947
ag948
ag949
ag950
ag951
ag952
ag953
atp958
Rp959
g1
((lp960
g940
ag938
ag939
ag941
ag942
ag943
a(I2
I4
tp961
atp962
Rp963
tp964
a(g1
((lp965
g940
ag938
ag939
ag941
ag942
ag943
ag961
atp966
Rp967
g1
((lp968
g947
ag950
a(I5
I5
tp969
ag948
ag951
ag952
ag953
atp970
Rp971
tp972
a(g1
((lp973
g947
ag950
ag969
ag948
ag951
ag952
ag953
atp974
Rp975
g1
((lp976
g938
ag939
ag941
ag942
ag943
a(I2
I5
tp977
ag961
atp978
Rp979
tp980
a(g1
((lp981
g938
ag939
ag941
ag942
ag943
ag961
atp982
Rp983
g1
((lp984
g947
ag950
ag948
ag951
ag952
a(I2
I5
tp985
ag953
atp986
Rp987
tp988
a(g1
((lp989
g947
ag950
ag948
ag951
ag952
ag953
atp990
Rp991
g1
((lp992
g938
ag939
ag941
ag942
ag943
a(I2
I5
tp993
atp994
Rp995
tp996
a(g1
((lp997
g938
ag939
ag941
ag942
ag943
ag993
atp998
Rp999
g1
((lp1000
g947
a(I6
I4
tp1001
ag948
ag951
ag952
ag953
atp1002
Rp1003
tp1004
a(g1
((lp1005
g947
ag1001
ag948
ag951
ag952
ag953
atp1006
Rp1007
g1
((lp1008
(I3
I2
tp1009
ag941
ag939
ag942
ag943
ag993
atp1010
Rp1011
tp1012
a(g1
((lp1013
g1009
ag941
ag939
ag942
ag943
ag993
atp1014
Rp1015
g1
((lp1016
g947
ag1001
ag948
ag952
a(I5
I3
tp1017
ag953
atp1018
Rp1019
tp1020
a(g1
((lp1021
g947
ag1001
ag948
ag952
ag1017
ag953
atp1022
Rp1023
g1
((lp1024
g1009
a(I2
I6
tp1025
ag941
ag939
ag942
ag993
atp1026
Rp1027
tp1028
a(g1
((lp1029
g937
ag938
ag939
ag940
ag941
ag942
ag943
atp1030
Rp1031
g1
((lp1032
g947
ag950
a(I4
I6
tp1033
ag948
ag951
ag952
ag953
atp1034
Rp1035
tp1036
a(g1
((lp1037
g947
ag950
ag1033
ag948
ag951
ag952
ag953
atp1038
Rp1039
g1
((lp1040
g937
ag938
ag939
ag941
ag942
ag943
a(I3
I5
tp1041
atp1042
Rp1043
tp1044
a(g1
((lp1045
g937
ag938
ag942
ag939
ag941
ag1041
atp1046
Rp1047
g1
((lp1048
g947
ag950
ag948
ag951
ag952
a(I3
I7
tp1049
ag953
atp1050
Rp1051
tp1052
a(g1
((lp1053
g947
ag948
ag951
ag1049
ag952
ag953
atp1054
Rp1055
g1
((lp1056
g937
ag938
ag942
ag939
a(I7
I5
tp1057
ag941
atp1058
Rp1059
tp1060
a(g1
((lp1061
g937
ag938
ag942
ag939
ag1057
ag941
atp1062
Rp1063
g1
((lp1064
g947
a(I4
I6
tp1065
ag948
ag951
ag952
ag953
atp1066
Rp1067
tp1068
a(g1
((lp1069
g947
ag1065
ag948
ag951
ag952
ag953
atp1070
Rp1071
g1
((lp1072
(I6
I4
tp1073
ag937
ag938
ag942
ag939
ag941
atp1074
Rp1075
tp1076
a(g1
((lp1077
g1073
ag937
ag938
ag942
ag939
ag941
atp1078
Rp1079
g1
((lp1080
g947
ag1065
a(I5
I7
tp1081
ag951
ag952
ag953
atp1082
Rp1083
tp1084
a(g1
((lp1085
g947
ag1065
ag1081
ag951
ag952
ag953
atp1086
Rp1087
g1
((lp1088
g1073
ag938
ag942
a(I1
I4
tp1089
ag939
ag941
atp1090
Rp1091
tp1092
a(g1
((lp1093
g1073
ag938
ag942
ag1089
ag939
ag941
atp1094
Rp1095
g1
((lp1096
g947
ag1065
ag1081
ag951
a(I5
I2
tp1097
ag953
atp1098
Rp1099
tp1100
a(g1
((lp1101
g947
ag1065
ag1081
ag951
ag1097
ag953
atp1102
Rp1103
g1
((lp1104
g1073
a(I3
I3
tp1105
ag938
ag1089
ag939
ag941
atp1106
Rp1107
tp1108
a(g1
((lp1109
g937
ag938
ag939
ag940
ag941
ag942
ag943
atp1110
Rp1111
g1
((lp1112
g947
ag950
ag948
a(I5
I7
tp1113
ag951
a(I4
I2
tp1114
ag953
atp1115
Rp1116
tp1117
a(g1
((lp1118
g947
ag950
ag948
ag1113
ag951
ag1114
ag953
atp1119
Rp1120
g1
((lp1121
g937
ag938
ag939
ag940
a(I2
I3
tp1122
ag941
ag943
atp1123
Rp1124
tp1125
a(g1
((lp1126
g937
ag939
ag940
ag1122
ag941
ag943
atp1127
Rp1128
g1
((lp1129
g947
ag950
ag1113
ag948
a(I3
I1
tp1130
ag951
ag953
atp1131
Rp1132
tp1133
a(g1
((lp1134
g947
ag950
ag1113
ag948
ag1130
ag951
ag953
atp1135
Rp1136
g1
((lp1137
g937
ag939
ag1122
ag941
ag943
a(I2
I5
tp1138
atp1139
Rp1140
tp1141
a(g1
((lp1142
g937
ag939
ag1122
ag941
ag943
ag1138
atp1143
Rp1144
g1
((lp1145
(I6
I4
tp1146
ag950
ag1113
ag948
ag1130
ag951
ag953
atp1147
Rp1148
tp1149
a(g1
((lp1150
g1146
ag1113
ag948
ag1130
ag951
ag953
atp1151
Rp1152
g1
((lp1153
g937
ag939
a(I7
I5
tp1154
ag1122
ag941
ag943
atp1155
Rp1156
tp1157
a(g1
((lp1158
g943
ag937
ag1122
ag941
ag939
atp1159
Rp1160
g1
((lp1161
g1146
a(I7
I5
tp1162
ag1113
ag1130
ag951
ag953
atp1163
Rp1164
tp1165
a(g1
((lp1166
g1146
ag1162
ag951
ag1113
ag953
atp1167
Rp1168
g1
((lp1169
g943
a(I3
I1
tp1170
ag1122
ag939
ag941
atp1171
Rp1172
tp1173
a(g1
((lp1174
g943
ag941
ag1122
ag939
atp1175
Rp1176
g1
((lp1177
g953
ag1162
ag951
a(I3
I1
tp1178
ag1113
atp1179
Rp1180
tp1181
a(g1
((lp1182
g951
ag1113
ag1162
ag1178
ag953
atp1183
Rp1184
g1
((lp1185
g943
ag1122
a(I2
I4
tp1186
ag941
atp1187
Rp1188
tp1189
a(g1
((lp1190
g937
ag938
ag939
ag940
ag941
ag942
ag943
atp1191
Rp1192
g1
((lp1193
g947
ag950
a(I4
I6
tp1194
ag948
ag951
ag952
ag953
atp1195
Rp1196
tp1197
a(g1
((lp1198
g947
ag950
ag1194
ag948
ag951
ag952
ag953
atp1199
Rp1200
g1
((lp1201
g940
ag938
ag939
ag941
ag942
ag943
a(I2
I4
tp1202
atp1203
Rp1204
tp1205
a(g1
((lp1206
g940
ag938
ag939
ag941
ag942
ag943
ag1202
atp1207
Rp1208
g1
((lp1209
g947
ag950
ag948
a(I5
I7
tp1210
ag951
ag952
ag953
atp1211
Rp1212
tp1213
a(g1
((lp1214
g947
ag950
ag948
ag1210
ag951
ag952
ag953
atp1215
Rp1216
g1
((lp1217
g940
a(I4
I6
tp1218
ag938
ag942
ag939
ag941
ag1202
atp1219
Rp1220
tp1221
a(g1
((lp1222
g940
ag1218
ag938
ag942
ag939
ag941
ag1202
atp1223
Rp1224
g1
((lp1225
g947
ag950
ag948
ag1210
ag951
a(I5
I2
tp1226
ag953
atp1227
Rp1228
tp1229
a(g1
((lp1230
g947
ag950
ag948
ag1210
ag951
ag1226
ag953
atp1231
Rp1232
g1
((lp1233
g940
ag1218
ag938
ag939
ag941
ag1202
a(I3
I3
tp1234
atp1235
Rp1236
tp1237
a(g1
((lp1238
g940
ag1218
ag938
ag939
ag941
ag1202
ag1234
atp1239
Rp1240
g1
((lp1241
g947
ag950
ag948
ag1210
ag951
a(I5
I3
tp1242
ag953
atp1243
Rp1244
tp1245
a(g1
((lp1246
g947
ag950
ag948
ag1210
ag951
ag953
ag1242
atp1247
Rp1248
g1
((lp1249
(I1
I3
tp1250
ag1218
ag938
ag939
ag940
ag1202
ag1234
atp1251
Rp1252
tp1253
a(g1
((lp1254
g1250
ag1234
ag938
ag939
ag1202
ag1218
atp1255
Rp1256
g1
((lp1257
g947
ag950
a(I2
I6
tp1258
ag948
ag1210
ag951
ag953
atp1259
Rp1260
tp1261
a(g1
((lp1262
g950
ag1258
ag948
ag1210
ag951
ag953
atp1263
Rp1264
g1
((lp1265
(I7
I3
tp1266
ag1250
ag1218
ag938
ag939
ag1202
atp1267
Rp1268
tp1269
a(g1
((lp1270
(I2
I6
tp1271
a(I3
I7
tp1272
a(I3
I1
tp1273
a(I1
I5
tp1274
a(I1
I3
tp1275
a(I2
I2
tp1276
a(I0
I4
tp1277
atp1278
Rp1279
g1
((lp1280
(I7
I3
tp1281
a(I7
I5
tp1282
a(I4
I6
tp1283
a(I6
I6
tp1284
a(I6
I2
tp1285
a(I5
I1
tp1286
a(I8
I4
tp1287
atp1288
Rp1289
tp1290
a(g1
((lp1291
g1281
ag1282
ag1283
ag1284
ag1285
ag1286
ag1287
atp1292
Rp1293
g1
((lp1294
g1275
ag1273
ag1274
ag1277
ag1276
ag1272
a(I3
I5
tp1295
atp1296
Rp1297
tp1298
a(g1
((lp1299
g1275
ag1273
ag1274
ag1277
ag1276
ag1272
ag1295
atp1300
Rp1301
g1
((lp1302
g1281
ag1283
ag1284
ag1285
ag1286
a(I6
I4
tp1303
ag1287
atp1304
Rp1305
tp1306
a(g1
((lp1307
g1281
ag1283
ag1284
ag1285
ag1286
ag1303
ag1287
atp1308
Rp1309
g1
((lp1310
g1275
ag1273
a(I1
I4
tp1311
ag1277
ag1276
ag1272
ag1295
atp1312
Rp1313
tp1314
a(g1
((lp1315
g1275
ag1273
ag1311
ag1277
ag1276
ag1272
ag1295
atp1316
Rp1317
g1
((lp1318
g1303
ag1283
ag1284
a(I7
I4
tp1319
ag1285
ag1286
ag1287
atp1320
Rp1321
tp1322
a(g1
((lp1323
g1283
ag1284
ag1319
ag1285
ag1286
ag1287
atp1324
Rp1325
g1
((lp1326
(I6
I4
tp1327
ag1275
ag1273
ag1277
ag1276
ag1272
ag1295
atp1328
Rp1329
tp1330
a(g1
((lp1331
g1275
ag1273
ag1276
ag1311
ag1277
ag1295
atp1332
Rp1333
g1
((lp1334
g1281
ag1284
ag1285
ag1286
a(I3
I7
tp1335
ag1303
ag1287
atp1336
Rp1337
tp1338
a(g1
((lp1339
g1281
ag1284
ag1285
ag1335
ag1286
ag1287
atp1340
Rp1341
g1
((lp1342
(I6
I4
tp1343
ag1275
ag1273
ag1276
ag1277
ag1295
atp1344
Rp1345
tp1346
a(g1
((lp1347
g1343
ag1275
ag1273
ag1276
ag1277
ag1295
atp1348
Rp1349
g1
((lp1350
g1284
a(I6
I3
tp1351
ag1285
ag1286
ag1335
ag1287
atp1352
Rp1353
tp1354
a(g1
((lp1355
g1284
ag1351
ag1285
ag1335
ag1286
ag1287
atp1356
Rp1357
g1
((lp1358
g1275
ag1273
ag1276
ag1277
ag1295
a(I5
I3
tp1359
atp1360
Rp1361
tp1362
a(g1
((lp1363
g1275
ag1273
ag1276
ag1277
ag1295
ag1359
atp1364
Rp1365
g1
((lp1366
(I7
I3
tp1367
ag1284
ag1285
ag1335
ag1286
ag1287
atp1368
Rp1369
tp1370
a(g1
((lp1371
g1286
ag1367
ag1285
ag1284
ag1287
atp1372
Rp1373
g1
((lp1374
g1275
ag1273
ag1277
ag1276
a(I3
I7
tp1375
ag1359
atp1376
Rp1377
tp1378
a(g1
((lp1379
g1271
ag1272
ag1273
ag1274
ag1275
ag1276
ag1277
atp1380
Rp1381
g1
((lp1382
(I6
I4
tp1383
ag1282
ag1284
a(I5
I7
tp1384
ag1285
ag1286
ag1287
atp1385
Rp1386
tp1387
a(g1
((lp1388
g1383
ag1282
ag1284
ag1384
ag1285
ag1286
ag1287
atp1389
Rp1390
g1
((lp1391
g1275
ag1273
ag1274
ag1277
ag1276
ag1272
a(I3
I5
tp1392
atp1393
Rp1394
tp1395
a(g1
((lp1396
g1275
ag1273
ag1274
ag1277
ag1276
ag1272
ag1392
atp1397
Rp1398
g1
((lp1399
g1383
ag1282
ag1284
ag1384
ag1285
a(I5
I2
tp1400
ag1287
atp1401
Rp1402
tp1403
a(g1
((lp1404
g1383
ag1282
ag1284
ag1384
ag1285
ag1400
ag1287
atp1405
Rp1406
g1
((lp1407
g1275
a(I3
I3
tp1408
ag1273
ag1274
ag1277
ag1272
ag1392
atp1409
Rp1410
tp1411
a(g1
((lp1412
g1275
ag1408
ag1273
ag1274
ag1277
ag1272
ag1392
atp1413
Rp1414
g1
((lp1415
g1383
ag1284
ag1384
a(I7
I4
tp1416
ag1282
ag1285
ag1400
atp1417
Rp1418
tp1419
a(g1
((lp1420
g1383
ag1284
ag1384
ag1416
ag1282
ag1285
ag1400
atp1421
Rp1422
g1
((lp1423
g1275
ag1408
ag1277
ag1274
a(I2
I2
tp1424
ag1272
ag1392
atp1425
Rp1426
tp1427
a(g1
((lp1428
g1275
ag1408
ag1277
ag1274
ag1424
ag1272
ag1392
atp1429
Rp1430
g1
((lp1431
g1383
ag1384
ag1416
ag1282
ag1285
ag1400
a(I6
I5
tp1432
atp1433
Rp1434
tp1435
a(g1
((lp1436
g1383
ag1384
ag1416
ag1282
ag1285
ag1400
atp1437
Rp1438
g1
((lp1439
g1275
ag1408
ag1277
ag1274
ag1424
ag1272
a(I6
I5
tp1440
atp1441
Rp1442
tp1443
a(g1
((lp1444
g1275
ag1408
ag1277
ag1274
ag1424
ag1272
atp1445
Rp1446
g1
((lp1447
g1384
ag1416
ag1282
ag1285
ag1400
a(I6
I5
tp1448
atp1449
Rp1450
tp1451
a(g1
((lp1452
g1384
ag1416
ag1282
ag1285
ag1400
ag1448
atp1453
Rp1454
g1
((lp1455
g1275
ag1408
ag1277
ag1424
ag1272
a(I2
I4
tp1456
atp1457
Rp1458
tp1459
a(g1
((lp1460
g1271
ag1272
ag1273
ag1274
ag1275
ag1276
ag1277
atp1461
Rp1462
g1
((lp1463
g1281
ag1282
a(I4
I6
tp1464
ag1284
ag1285
ag1286
ag1287
atp1465
Rp1466
tp1467
a(g1
((lp1468
g1281
ag1282
ag1464
ag1284
ag1285
ag1286
ag1287
atp1469
Rp1470
g1
((lp1471
g1275
ag1273
ag1274
ag1277
ag1276
ag1272
a(I3
I5
tp1472
atp1473
Rp1474
tp1475
a(g1
((lp1476
g1275
ag1273
ag1274
ag1277
ag1276
ag1272
ag1472
atp1477
Rp1478
g1
((lp1479
g1281
ag1464
ag1284
ag1285
ag1286
a(I6
I4
tp1480
ag1287
atp1481
Rp1482
tp1483
a(g1
((lp1484
g1281
ag1284
ag1285
ag1286
ag1480
ag1287
atp1485
Rp1486
g1
((lp1487
g1275
a(I4
I6
tp1488
ag1273
ag1276
ag1274
ag1277
ag1272
atp1489
Rp1490
tp1491
a(g1
((lp1492
g1275
ag1273
ag1274
ag1277
ag1276
ag1272
atp1493
Rp1494
g1
((lp1495
g1281
a(I4
I6
tp1496
ag1284
ag1285
ag1286
ag1287
atp1497
Rp1498
tp1499
a(g1
((lp1500
g1281
ag1496
ag1284
ag1285
ag1286
ag1287
atp1501
Rp1502
g1
((lp1503
g1275
ag1276
ag1274
ag1277
ag1272
a(I4
I2
tp1504
atp1505
Rp1506
tp1507
a(g1
((lp1508
g1275
ag1276
ag1274
ag1277
ag1272
ag1504
atp1509
Rp1510
g1
((lp1511
g1281
ag1496
ag1284
ag1286
ag1287
a(I5
I3
tp1512
atp1513
Rp1514
tp1515
a(g1
((lp1516
g1281
ag1496
ag1284
ag1286
ag1287
ag1512
atp1517
Rp1518
g1
((lp1519
g1276
a(I1
I4
tp1520
ag1274
ag1277
ag1504
ag1272
atp1521
Rp1522
tp1523
a(g1
((lp1524
g1276
ag1520
ag1274
ag1277
ag1504
ag1272
atp1525
Rp1526
g1
((lp1527
g1281
ag1496
a(I5
I5
tp1528
ag1286
ag1287
ag1512
atp1529
Rp1530
tp1531
a(g1
((lp1532
g1528
ag1281
ag1512
ag1496
ag1287
atp1533
Rp1534
g1
((lp1535
g1277
ag1276
ag1520
ag1274
ag1272
a(I5
I1
tp1536
atp1537
Rp1538
tp1539
a(g1
((lp1540
g1271
ag1272
ag1273
ag1274
ag1275
ag1276
ag1277
atp1541
Rp1542
g1
((lp1543
(I6
I4
tp1544
ag1282
ag1284
ag1384
ag1285
ag1286
ag1287
atp1545
Rp1546
tp1547
a(g1
((lp1548
g1544
ag1282
ag1284
ag1384
ag1285
ag1286
ag1287
atp1549
Rp1550
g1
((lp1551
g1275
ag1273
ag1274
ag1277
ag1276
ag1272
a(I3
I5
tp1552
atp1553
Rp1554
tp1555
a(g1
((lp1556
g1275
ag1273
ag1274
ag1277
ag1276
ag1272
ag1552
atp1557
Rp1558
g1
((lp1559
g1544
ag1282
ag1284
ag1384
ag1285
a(I5
I2
tp1560
ag1287
atp1561
Rp1562
tp1563
a(g1
((lp1564
g1544
ag1282
ag1284
ag1384
ag1285
ag1560
ag1287
atp1565
Rp1566
g1
((lp1567
(I3
I2
tp1568
ag1275
ag1277
ag1274
ag1276
ag1272
ag1552
atp1569
Rp1570
tp1571
a(g1
((lp1572
g1275
ag1277
ag1274
ag1276
ag1272
ag1552
atp1573
Rp1574
g1
((lp1575
g1544
a(I3
I2
tp1576
ag1284
ag1282
ag1384
ag1285
ag1287
atp1577
Rp1578
tp1579
a(g1
((lp1580
g1544
ag1282
ag1284
ag1384
ag1285
ag1287
atp1581
Rp1582
g1
((lp1583
(I3
I2
tp1584
ag1275
ag1277
ag1274
ag1276
ag1272
atp1585
Rp1586
tp1587
a(g1
((lp1588
g1584
ag1275
ag1277
ag1274
ag1276
ag1272
atp1589
Rp1590
g1
((lp1591
g1544
ag1284
ag1384
ag1282
a(I5
I3
tp1592
ag1287
atp1593
Rp1594
tp1595
a(g1
((lp1596
g1544
ag1284
ag1384
ag1282
ag1592
ag1287
atp1597
Rp1598
g1
((lp1599
g1275
a(I3
I3
tp1600
ag1277
ag1274
ag1276
ag1272
atp1601
Rp1602
tp1603
a(g1
((lp1604
g1275
ag1600
ag1277
ag1274
ag1276
ag1272
atp1605
Rp1606
g1
((lp1607
g1544
a(I5
I4
tp1608
ag1284
ag1384
ag1282
ag1287
atp1609
Rp1610
tp1611
a(g1
((lp1612
g1544
ag1608
ag1284
ag1384
ag1282
ag1287
atp1613
Rp1614
g1
((lp1615
g1275
ag1600
ag1277
ag1274
a(I3
I6
tp1616
ag1276
atp1617
Rp1618
tp1619
a(g1
((lp1620
(I2
I6
tp1621
a(I3
I7
tp1622
a(I3
I1
tp1623
a(I1
I5
tp1624
a(I1
I3
tp1625
a(I2
I2
tp1626
a(I0
I4
tp1627
atp1628
Rp1629
g1
((lp1630
(I7
I3
tp1631
a(I7
I5
tp1632
a(I4
I6
tp1633
a(I6
I6
tp1634
a(I6
I2
tp1635
a(I5
I1
tp1636
a(I8
I4
tp1637
atp1638
Rp1639
tp1640
a(g1
((lp1641
g1631
ag1632
ag1633
ag1634
ag1635
ag1636
ag1637
atp1642
Rp1643
g1
((lp1644
g1621
ag1623
ag1625
ag1627
ag1626
ag1622
a(I2
I4
tp1645
atp1646
Rp1647
tp1648
a(g1
((lp1649
g1621
ag1623
ag1625
ag1627
ag1626
ag1622
ag1645
atp1650
Rp1651
g1
((lp1652
(I6
I4
tp1653
ag1632
ag1633
ag1634
ag1635
ag1636
ag1637
atp1654
Rp1655
tp1656
a(g1
((lp1657
g1653
ag1632
ag1634
ag1635
ag1636
ag1637
atp1658
Rp1659
g1
((lp1660
g1621
a(I4
I6
tp1661
ag1623
ag1626
ag1625
ag1627
ag1622
atp1662
Rp1663
tp1664
a(g1
((lp1665
g1621
ag1661
ag1623
ag1626
ag1625
ag1627
ag1622
atp1666
Rp1667
g1
((lp1668
g1653
ag1634
ag1632
ag1636
ag1637
a(I5
I3
tp1669
atp1670
Rp1671
tp1672
a(g1
((lp1673
g1637
ag1636
ag1632
ag1634
ag1669
atp1674
Rp1675
g1
((lp1676
(I6
I4
tp1677
ag1621
ag1623
ag1626
ag1625
ag1627
ag1622
atp1678
Rp1679
tp1680
a(g1
((lp1681
g1677
ag1621
ag1623
ag1626
ag1625
ag1627
ag1622
atp1682
Rp1683
g1
((lp1684
g1637
ag1636
ag1632
a(I4
I4
tp1685
ag1634
atp1686
Rp1687
tp1688
a(g1
((lp1689
g1636
ag1632
ag1634
ag1685
ag1637
atp1690
Rp1691
g1
((lp1692
g1677
ag1621
ag1623
ag1627
ag1626
ag1622
a(I2
I4
tp1693
atp1694
Rp1695
tp1696
a(g1
((lp1697
g1677
ag1621
ag1623
ag1627
ag1626
ag1622
ag1693
atp1698
Rp1699
g1
((lp1700
g1637
ag1636
ag1632
ag1685
a(I5
I7
tp1701
atp1702
Rp1703
tp1704
a(g1
((lp1705
g1636
ag1632
ag1701
ag1637
atp1706
Rp1707
g1
((lp1708
g1677
ag1621
ag1622
ag1623
a(I4
I4
tp1709
ag1626
ag1627
atp1710
Rp1711
tp1712
a(g1
((lp1713
(I1
I3
tp1714
a(I3
I1
tp1715
a(I1
I5
tp1716
a(I2
I6
tp1717
a(I0
I4
tp1718
a(I2
I2
tp1719
a(I3
I7
tp1720
atp1721
Rp1722
g1
((lp1723
(I7
I3
tp1724
a(I7
I5
tp1725
a(I5
I5
tp1726
a(I5
I7
tp1727
a(I6
I2
tp1728
a(I5
I1
tp1729
a(I8
I4
tp1730
atp1731
Rp1732
tp1733
a(g1
((lp1734
g1724
ag1725
ag1726
ag1727
ag1728
ag1729
ag1730
atp1735
Rp1736
g1
((lp1737
g1714
ag1715
ag1717
ag1718
ag1719
ag1720
a(I2
I4
tp1738
atp1739
Rp1740
tp1741
a(g1
((lp1742
g1714
ag1715
ag1717
ag1718
ag1719
ag1720
ag1738
atp1743
Rp1744
g1
((lp1745
g1724
ag1725
ag1726
a(I6
I6
tp1746
ag1728
ag1729
ag1730
atp1747
Rp1748
tp1749
a(g1
((lp1750
g1724
ag1725
ag1726
ag1746
ag1728
ag1729
ag1730
atp1751
Rp1752
g1
((lp1753
g1714
ag1715
ag1717
a(I2
I3
tp1754
ag1718
ag1720
ag1738
atp1755
Rp1756
tp1757
a(g1
((lp1758
g1714
ag1715
ag1717
ag1754
ag1718
ag1720
ag1738
atp1759
Rp1760
g1
((lp1761
g1724
ag1725
ag1726
ag1746
ag1728
a(I4
I2
tp1762
ag1730
atp1763
Rp1764
tp1765
a(g1
((lp1766
g1725
ag1726
ag1746
ag1728
ag1762
ag1730
atp1767
Rp1768
g1
((lp1769
(I7
I3
tp1770
ag1714
ag1715
ag1717
ag1718
ag1720
ag1738
atp1771
Rp1772
tp1773
a(g1
((lp1774
g1714
ag1715
ag1717
ag1754
ag1718
ag1720
ag1738
atp1775
Rp1776
g1
((lp1777
g1724
ag1725
ag1726
ag1746
ag1728
a(I4
I2
tp1778
ag1730
atp1779
Rp1780
tp1781
a(g1
((lp1782
g1725
ag1726
ag1746
ag1728
ag1778
ag1730
atp1783
Rp1784
g1
((lp1785
(I7
I3
tp1786
ag1714
ag1715
ag1717
ag1718
ag1720
ag1738
atp1787
Rp1788
tp1789
a(g1
((lp1790
g1786
ag1714
ag1717
ag1718
ag1720
ag1738
atp1791
Rp1792
g1
((lp1793
g1725
ag1726
ag1746
a(I3
I1
tp1794
ag1728
ag1730
atp1795
Rp1796
tp1797
a(g1
((lp1798
g1725
ag1728
ag1746
ag1726
ag1730
atp1799
Rp1800
g1
((lp1801
g1786
ag1717
a(I3
I1
tp1802
ag1718
ag1720
ag1738
atp1803
Rp1804
tp1805
a(g1
((lp1806
g1786
ag1717
ag1802
ag1718
ag1720
ag1738
atp1807
Rp1808
g1
((lp1809
(I5
I3
tp1810
ag1725
ag1746
ag1726
ag1730
atp1811
Rp1812
tp1813
a(g1
((lp1814
g1730
ag1725
ag1746
ag1726
ag1810
atp1815
Rp1816
g1
((lp1817
g1786
ag1717
a(I4
I6
tp1818
ag1802
ag1718
ag1738
atp1819
Rp1820
tp1821
a(g1
((lp1822
(I2
I6
tp1823
a(I3
I7
tp1824
a(I3
I1
tp1825
a(I1
I5
tp1826
a(I1
I3
tp1827
a(I2
I2
tp1828
a(I0
I4
tp1829
atp1830
Rp1831
g1
((lp1832
(I7
I3
tp1833
a(I6
I6
tp1834
a(I5
I6
tp1835
a(I7
I5
tp1836
a(I6
I2
tp1837
a(I5
I1
tp1838
a(I8
I4
tp1839
atp1840
Rp1841
tp1842
a(g1
((lp1843
g1833
ag1834
ag1835
ag1836
ag1837
ag1838
ag1839
atp1844
Rp1845
g1
((lp1846
g1823
ag1825
ag1826
ag1829
ag1828
ag1824
a(I2
I4
tp1847
atp1848
Rp1849
tp1850
a(g1
((lp1851
g1823
ag1825
ag1826
ag1829
ag1828
ag1824
ag1847
atp1852
Rp1853
g1
((lp1854
g1833
ag1836
a(I5
I5
tp1855
ag1834
ag1837
ag1838
ag1839
atp1856
Rp1857
tp1858
a(g1
((lp1859
g1833
ag1836
ag1855
ag1834
ag1837
ag1838
ag1839
atp1860
Rp1861
g1
((lp1862
g1823
ag1828
ag1826
ag1829
ag1824
a(I4
I2
tp1863
ag1847
atp1864
Rp1865
tp1866
a(g1
((lp1867
g1823
ag1829
ag1826
ag1828
ag1863
ag1847
atp1868
Rp1869
g1
((lp1870
g1833
ag1836
ag1834
ag1837
ag1838
a(I3
I7
tp1871
ag1839
atp1872
Rp1873
tp1874
a(g1
((lp1875
g1833
ag1836
ag1834
ag1837
ag1838
ag1839
atp1876
Rp1877
g1
((lp1878
(I3
I7
tp1879
ag1829
ag1826
ag1828
ag1863
ag1847
atp1880
Rp1881
tp1882
a(g1
((lp1883
g1879
ag1829
ag1826
ag1828
ag1863
ag1847
atp1884
Rp1885
g1
((lp1886
g1833
ag1836
a(I5
I5
tp1887
ag1837
ag1838
ag1839
atp1888
Rp1889
tp1890
a(g1
((lp1891
g1837
ag1833
ag1836
ag1887
ag1838
atp1892
Rp1893
g1
((lp1894
g1879
ag1829
ag1826
ag1828
ag1863
a(I8
I4
tp1895
atp1896
Rp1897
tp1898
a(g1
((lp1899
g1895
ag1879
ag1829
ag1863
ag1828
atp1900
Rp1901
g1
((lp1902
g1837
ag1833
ag1836
ag1838
a(I1
I5
tp1903
atp1904
Rp1905
tp1906
a(g1
((lp1907
g1838
ag1836
ag1903
ag1833
atp1908
Rp1909
g1
((lp1910
g1828
ag1879
a(I6
I2
tp1911
ag1829
ag1895
atp1912
Rp1913
tp1914
a(g1
((lp1915
g1826
ag1828
ag1879
ag1863
ag1829
atp1916
Rp1917
g1
((lp1918
g1837
ag1838
ag1836
ag1887
a(I8
I4
tp1919
atp1920
Rp1921
tp1922
a(g1
((lp1923
g1838
ag1836
ag1887
ag1919
atp1924
Rp1925
g1
((lp1926
g1826
a(I6
I2
tp1927
ag1879
ag1828
ag1829
atp1928
Rp1929
tp1930
a(g1
((lp1931
g1823
ag1824
ag1825
ag1826
ag1827
ag1828
ag1829
atp1932
Rp1933
g1
((lp1934
g1833
ag1836
ag1834
a(I5
I7
tp1935
ag1837
a(I4
I2
tp1936
ag1839
atp1937
Rp1938
tp1939
a(g1
((lp1940
g1833
ag1836
ag1834
ag1935
ag1837
ag1936
ag1839
atp1941
Rp1942
g1
((lp1943
g1823
a(I3
I3
tp1944
ag1825
ag1826
ag1827
ag1829
ag1824
atp1945
Rp1946
tp1947
a(g1
((lp1948
g1823
ag1944
ag1826
ag1827
ag1829
ag1824
atp1949
Rp1950
g1
((lp1951
g1833
ag1836
ag1935
ag1834
a(I3
I1
tp1952
ag1837
ag1839
atp1953
Rp1954
tp1955
a(g1
((lp1956
g1836
ag1952
ag1834
ag1935
ag1837
ag1839
atp1957
Rp1958
g1
((lp1959
(I7
I3
tp1960
ag1823
ag1826
ag1827
ag1829
ag1824
atp1961
Rp1962
tp1963
a(g1
((lp1964
g1960
ag1823
ag1826
ag1827
ag1829
ag1824
atp1965
Rp1966
g1
((lp1967
g1836
ag1834
ag1935
ag1837
a(I4
I2
tp1968
ag1839
atp1969
Rp1970
tp1971
a(g1
((lp1972
g1836
ag1834
ag1935
ag1837
ag1968
ag1839
atp1973
Rp1974
g1
((lp1975
g1960
ag1827
ag1826
ag1829
ag1824
a(I3
I5
tp1976
atp1977
Rp1978
tp1979
a(g1
((lp1980
g1960
ag1827
ag1826
ag1829
ag1824
ag1976
atp1981
Rp1982
g1
((lp1983
(I6
I4
tp1984
ag1834
ag1935
ag1837
ag1968
ag1839
atp1985
Rp1986
tp1987
a(g1
((lp1988
g1984
ag1834
ag1935
ag1837
ag1968
ag1839
atp1989
Rp1990
g1
((lp1991
g1827
a(I7
I4
tp1992
ag1826
ag1829
ag1824
ag1976
atp1993
Rp1994
tp1995
a(g1
((lp1996
g1827
ag1992
ag1826
ag1829
ag1824
ag1976
atp1997
Rp1998
g1
((lp1999
g1984
ag1834
ag1935
ag1968
a(I5
I3
tp2000
ag1839
atp2001
Rp2002
tp2003
a(g1
((lp2004
g1984
ag1834
ag1935
ag1968
ag2000
ag1839
atp2005
Rp2006
g1
((lp2007
g1827
a(I4
I4
tp2008
ag1992
ag1826
ag1829
ag1824
atp2009
Rp2010
tp2011
a(g1
((lp2012
(I1
I3
tp2013
a(I3
I1
tp2014
a(I1
I5
tp2015
a(I2
I6
tp2016
a(I0
I4
tp2017
a(I2
I2
tp2018
a(I3
I7
tp2019
atp2020
Rp2021
g1
((lp2022
(I7
I3
tp2023
a(I6
I6
tp2024
a(I5
I6
tp2025
a(I7
I5
tp2026
a(I6
I2
tp2027
a(I5
I1
tp2028
a(I8
I4
tp2029
atp2030
Rp2031
tp2032
a(g1
((lp2033
g2023
ag2024
ag2025
ag2026
ag2027
ag2028
ag2029
atp2034
Rp2035
g1
((lp2036
g2016
ag2014
ag2015
ag2017
ag2018
ag2019
a(I2
I4
tp2037
atp2038
Rp2039
tp2040
a(g1
((lp2041
g2016
ag2014
ag2015
ag2017
ag2018
ag2019
ag2037
atp2042
Rp2043
g1
((lp2044
g2023
ag2026
a(I5
I5
tp2045
ag2024
ag2027
ag2028
ag2029
atp2046
Rp2047
tp2048
a(g1
((lp2049
g2023
ag2026
ag2045
ag2024
ag2027
ag2028
ag2029
atp2050
Rp2051
g1
((lp2052
g2014
ag2015
ag2017
ag2018
ag2019
a(I2
I5
tp2053
ag2037
atp2054
Rp2055
tp2056
a(g1
((lp2057
g2014
ag2015
ag2017
ag2018
ag2019
ag2037
atp2058
Rp2059
g1
((lp2060
g2023
ag2026
ag2024
ag2027
ag2028
a(I2
I5
tp2061
ag2029
atp2062
Rp2063
tp2064
a(g1
((lp2065
g2023
ag2026
ag2024
ag2027
ag2028
ag2029
atp2066
Rp2067
g1
((lp2068
g2014
ag2015
ag2017
ag2018
ag2019
a(I2
I5
tp2069
atp2070
Rp2071
tp2072
a(g1
((lp2073
g2014
ag2015
ag2017
ag2018
ag2019
ag2069
atp2074
Rp2075
g1
((lp2076
g2023
a(I6
I4
tp2077
ag2024
ag2027
ag2028
ag2029
atp2078
Rp2079
tp2080
a(g1
((lp2081
g2023
ag2077
ag2024
ag2027
ag2028
ag2029
atp2082
Rp2083
g1
((lp2084
(I3
I2
tp2085
ag2017
ag2015
ag2018
ag2019
ag2069
atp2086
Rp2087
tp2088
a(g1
((lp2089
g2085
ag2017
ag2015
ag2018
ag2019
ag2069
atp2090
Rp2091
g1
((lp2092
g2023
ag2077
ag2024
ag2028
a(I5
I3
tp2093
ag2029
atp2094
Rp2095
tp2096
a(g1
((lp2097
g2023
ag2077
ag2024
ag2028
ag2029
ag2093
atp2098
Rp2099
g1
((lp2100
g2085
a(I2
I6
tp2101
ag2017
ag2015
ag2018
ag2069
atp2102
Rp2103
tp2104
a(g1
((lp2105
(I1
I5
tp2106
a(I2
I6
tp2107
a(I3
I1
tp2108
a(I2
I2
tp2109
a(I1
I3
tp2110
a(I3
I7
tp2111
a(I0
I4
tp2112
atp2113
Rp2114
g1
((lp2115
(I7
I3
tp2116
a(I7
I5
tp2117
a(I6
I6
tp2118
a(I5
I6
tp2119
a(I5
I1
tp2120
a(I8
I4
tp2121
a(I6
I2
tp2122
atp2123
Rp2124
tp2125
a(g1
((lp2126
g2116
ag2117
ag2118
ag2119
ag2120
ag2122
ag2121
atp2127
Rp2128
g1
((lp2129
g2106
ag2107
ag2112
ag2109
ag2111
ag2108
a(I2
I4
tp2130
atp2131
Rp2132
tp2133
a(g1
((lp2134
g2106
ag2107
ag2108
ag2112
ag2111
ag2109
ag2130
atp2135
Rp2136
g1
((lp2137
g2116
ag2117
a(I5
I5
tp2138
ag2118
ag2122
ag2120
ag2121
atp2139
Rp2140
tp2141
a(g1
((lp2142
g2116
ag2117
ag2138
ag2118
ag2122
ag2120
ag2121
atp2143
Rp2144
g1
((lp2145
g2106
a(I3
I2
tp2146
ag2107
ag2112
ag2111
ag2109
ag2130
atp2147
Rp2148
tp2149
a(g1
((lp2150
g2106
ag2146
ag2107
ag2112
ag2111
ag2109
ag2130
atp2151
Rp2152
g1
((lp2153
g2116
ag2117
ag2138
ag2118
ag2120
ag2121
a(I5
I3
tp2154
atp2155
Rp2156
tp2157
a(g1
((lp2158
g2116
ag2117
ag2138
ag2118
ag2154
ag2121
atp2159
Rp2160
g1
((lp2161
g2106
ag2146
ag2107
ag2111
ag2112
a(I5
I1
tp2162
ag2109
atp2163
Rp2164
tp2165
a(g1
((lp2166
g2106
ag2146
ag2107
ag2112
ag2162
ag2111
atp2167
Rp2168
g1
((lp2169
g2116
ag2117
ag2118
ag2121
a(I2
I2
tp2170
ag2154
atp2171
Rp2172
tp2173
a(g1
((lp2174
g2116
ag2154
ag2117
ag2118
ag2170
ag2121
atp2175
Rp2176
g1
((lp2177
g2106
ag2146
ag2107
ag2112
ag2111
a(I4
I1
tp2178
atp2179
Rp2180
tp2181
a(g1
((lp2182
g2106
ag2146
ag2107
ag2112
ag2111
ag2178
atp2183
Rp2184
g1
((lp2185
g2116
ag2117
a(I3
I3
tp2186
ag2118
ag2121
ag2154
atp2187
Rp2188
tp2189
a(g1
((lp2190
g2116
ag2117
ag2186
ag2118
ag2154
ag2121
atp2191
Rp2192
g1
((lp2193
g2146
ag2107
ag2112
ag2111
ag2178
a(I2
I4
tp2194
atp2195
Rp2196
tp2197
a.